

Microchip MPLAB XC8 Assembler V2.10 build 88905656 
                                                                                               Mon Mar 30 16:03:18 2020

Microchip MPLAB XC8 C Compiler v2.10 (Free license) build 20190730164152 Og1 
     1                           	processor	16F877A
     2                           	opt	pw 120
     3                           	opt	flic
     4                           	psect	idataBANK2,global,class=CODE,delta=2
     5                           	psect	idataBANK3,global,class=CODE,delta=2
     6                           	psect	strings,global,class=STRING,delta=2
     7                           	psect	cinit,global,class=CODE,merge=1,delta=2
     8                           	psect	dataBANK3,global,class=BANK3,space=1,delta=1
     9                           	psect	bssBANK2,global,class=BANK2,space=1,delta=1
    10                           	psect	dataBANK2,global,class=BANK2,space=1,delta=1
    11                           	psect	inittext,global,class=CODE,delta=2
    12                           	psect	cstackBANK3,global,class=BANK3,space=1,delta=1
    13                           	psect	cstackBANK1,global,class=BANK1,space=1,delta=1
    14                           	psect	cstackCOMMON,global,class=COMMON,space=1,delta=1
    15                           	psect	cstackBANK0,global,class=BANK0,space=1,delta=1
    16                           	psect	maintext,global,class=CODE,split=1,delta=2
    17                           	psect	text1,local,class=CODE,merge=1,delta=2
    18                           	psect	text2,local,class=CODE,merge=1,delta=2,group=2
    19                           	psect	text3,local,class=CODE,merge=1,delta=2,group=1
    20                           	psect	text4,local,class=CODE,merge=1,delta=2,group=1
    21                           	psect	text5,local,class=CODE,merge=1,delta=2,group=1
    22                           	psect	text6,local,class=CODE,merge=1,delta=2,group=1
    23                           	psect	text7,local,class=CODE,merge=1,delta=2,group=1
    24                           	psect	text8,local,class=CODE,merge=1,delta=2,group=1
    25                           	psect	text9,local,class=CODE,merge=1,delta=2,group=1
    26                           	dabs	1,0x7E,2
    27  0000                     
    28                           ; Version 2.10
    29                           ; Generated 31/07/2019 GMT
    30                           ; 
    31                           ; Copyright © 2019, Microchip Technology Inc. and its subsidiaries ("Microchip")
    32                           ; All rights reserved.
    33                           ; 
    34                           ; This software is developed by Microchip Technology Inc. and its subsidiaries ("Microch
      +                          ip").
    35                           ; 
    36                           ; Redistribution and use in source and binary forms, with or without modification, are
    37                           ; permitted provided that the following conditions are met:
    38                           ; 
    39                           ;     1. Redistributions of source code must retain the above copyright notice, this lis
      +                          t of
    40                           ;        conditions and the following disclaimer.
    41                           ; 
    42                           ;     2. Redistributions in binary form must reproduce the above copyright notice, this 
      +                          list
    43                           ;        of conditions and the following disclaimer in the documentation and/or other
    44                           ;        materials provided with the distribution.
    45                           ; 
    46                           ;     3. Microchip's name may not be used to endorse or promote products derived from th
      +                          is
    47                           ;        software without specific prior written permission.
    48                           ; 
    49                           ; THIS SOFTWARE IS PROVIDED BY MICROCHIP "AS IS" AND ANY EXPRESS OR IMPLIED WARRANTIES,
    50                           ; INCLUDING, BUT NOT LIMITED TO, THE IMPLIED WARRANTIES OF MERCHANTABILITY AND FITNESS F
      +                          OR
    51                           ; PURPOSE ARE DISCLAIMED.  IN NO EVENT SHALL MICROCHIP BE LIABLE FOR ANY DIRECT, INDIREC
      +                          T,
    52                           ; INCIDENTAL, SPECIAL, EXEMPLARY, OR CONSEQUENTIAL DAMAGES (INCLUDING BUT NOT LIMITED TO
    53                           ; PROCUREMENT OF SUBSTITUTE GOODS OR SERVICES; LOSS OF USE, DATA OR PROFITS; OR BUSINESS
    54                           ; INTERRUPTION) HOWSOEVER CAUSED AND ON ANY THEORY OF LIABILITY, WHETHER IN CONTRACT, ST
      +                          RICT
    55                           ; LIABILITY, OR TORT (INCLUDING NEGLIGENCE OR OTHERWISE) ARISING IN ANY WAY OUT OF THE U
      +                          SE OF
    56                           ; THIS SOFTWARE, EVEN IF ADVISED OF THE POSSIBILITY OF SUCH DAMAGE.
    57                           ; 
    58                           ; 
    59                           ; Code-generator required, PIC16F877A Definitions
    60                           ; 
    61                           ; SFR Addresses
    62  0000                     	;# 
    63  0001                     	;# 
    64  0002                     	;# 
    65  0003                     	;# 
    66  0004                     	;# 
    67  0005                     	;# 
    68  0006                     	;# 
    69  0007                     	;# 
    70  0008                     	;# 
    71  0009                     	;# 
    72  000A                     	;# 
    73  000B                     	;# 
    74  000C                     	;# 
    75  000D                     	;# 
    76  000E                     	;# 
    77  000E                     	;# 
    78  000F                     	;# 
    79  0010                     	;# 
    80  0011                     	;# 
    81  0012                     	;# 
    82  0013                     	;# 
    83  0014                     	;# 
    84  0015                     	;# 
    85  0015                     	;# 
    86  0016                     	;# 
    87  0017                     	;# 
    88  0018                     	;# 
    89  0019                     	;# 
    90  001A                     	;# 
    91  001B                     	;# 
    92  001B                     	;# 
    93  001C                     	;# 
    94  001D                     	;# 
    95  001E                     	;# 
    96  001F                     	;# 
    97  0081                     	;# 
    98  0085                     	;# 
    99  0086                     	;# 
   100  0087                     	;# 
   101  0088                     	;# 
   102  0089                     	;# 
   103  008C                     	;# 
   104  008D                     	;# 
   105  008E                     	;# 
   106  0091                     	;# 
   107  0092                     	;# 
   108  0093                     	;# 
   109  0094                     	;# 
   110  0098                     	;# 
   111  0099                     	;# 
   112  009C                     	;# 
   113  009D                     	;# 
   114  009E                     	;# 
   115  009F                     	;# 
   116  010C                     	;# 
   117  010D                     	;# 
   118  010E                     	;# 
   119  010F                     	;# 
   120  018C                     	;# 
   121  018D                     	;# 
   122  0000                     	;# 
   123  0001                     	;# 
   124  0002                     	;# 
   125  0003                     	;# 
   126  0004                     	;# 
   127  0005                     	;# 
   128  0006                     	;# 
   129  0007                     	;# 
   130  0008                     	;# 
   131  0009                     	;# 
   132  000A                     	;# 
   133  000B                     	;# 
   134  000C                     	;# 
   135  000D                     	;# 
   136  000E                     	;# 
   137  000E                     	;# 
   138  000F                     	;# 
   139  0010                     	;# 
   140  0011                     	;# 
   141  0012                     	;# 
   142  0013                     	;# 
   143  0014                     	;# 
   144  0015                     	;# 
   145  0015                     	;# 
   146  0016                     	;# 
   147  0017                     	;# 
   148  0018                     	;# 
   149  0019                     	;# 
   150  001A                     	;# 
   151  001B                     	;# 
   152  001B                     	;# 
   153  001C                     	;# 
   154  001D                     	;# 
   155  001E                     	;# 
   156  001F                     	;# 
   157  0081                     	;# 
   158  0085                     	;# 
   159  0086                     	;# 
   160  0087                     	;# 
   161  0088                     	;# 
   162  0089                     	;# 
   163  008C                     	;# 
   164  008D                     	;# 
   165  008E                     	;# 
   166  0091                     	;# 
   167  0092                     	;# 
   168  0093                     	;# 
   169  0094                     	;# 
   170  0098                     	;# 
   171  0099                     	;# 
   172  009C                     	;# 
   173  009D                     	;# 
   174  009E                     	;# 
   175  009F                     	;# 
   176  010C                     	;# 
   177  010D                     	;# 
   178  010E                     	;# 
   179  010F                     	;# 
   180  018C                     	;# 
   181  018D                     	;# 
   182                           
   183                           	psect	idataBANK2
   184  09C8                     __pidataBANK2:	
   185                           
   186                           ;initializer for write_led@F996
   187  09C8  3430               	retlw	48
   188  09C9  3476               	retlw	118
   189  09CA  34C6               	retlw	198
   190  09CB  34C0               	retlw	192
   191  09CC  34C0               	retlw	192
   192  09CD  34C6               	retlw	198
   193  09CE  3476               	retlw	118
   194  09CF  3430               	retlw	48
   195                           
   196                           ;initializer for write_led@F994
   197  09D0  340E               	retlw	14
   198  09D1  341F               	retlw	31
   199  09D2  343E               	retlw	62
   200  09D3  34FC               	retlw	252
   201  09D4  343E               	retlw	62
   202  09D5  341F               	retlw	31
   203  09D6  340E               	retlw	14
   204  09D7  3400               	retlw	0
   205                           
   206                           ;initializer for write_led@F992
   207  09D8  340C               	retlw	12
   208  09D9  341E               	retlw	30
   209  09DA  343C               	retlw	60
   210  09DB  347C               	retlw	124
   211  09DC  347C               	retlw	124
   212  09DD  343C               	retlw	60
   213  09DE  341E               	retlw	30
   214  09DF  340C               	retlw	12
   215                           
   216                           ;initializer for write_led@F990
   217  09E0  34DF               	retlw	223
   218  09E1  34DB               	retlw	219
   219  09E2  34DB               	retlw	219
   220  09E3  34DB               	retlw	219
   221  09E4  34DB               	retlw	219
   222  09E5  34DB               	retlw	219
   223  09E6  34FB               	retlw	251
   224  09E7  34FB               	retlw	251
   225                           
   226                           ;initializer for write_led@F988
   227  09E8  34FF               	retlw	255
   228  09E9  34FF               	retlw	255
   229  09EA  341B               	retlw	27
   230  09EB  341B               	retlw	27
   231  09EC  343B               	retlw	59
   232  09ED  347B               	retlw	123
   233  09EE  34DE               	retlw	222
   234  09EF  349C               	retlw	156
   235                           
   236                           ;initializer for write_led@F986
   237  09F0  34FF               	retlw	255
   238  09F1  34FF               	retlw	255
   239  09F2  34C3               	retlw	195
   240  09F3  34C3               	retlw	195
   241  09F4  34C3               	retlw	195
   242  09F5  34C3               	retlw	195
   243  09F6  347E               	retlw	126
   244  09F7  343C               	retlw	60
   245                           
   246                           ;initializer for write_led@F984
   247  09F8  34FF               	retlw	255
   248  09F9  34FF               	retlw	255
   249  09FA  34DB               	retlw	219
   250  09FB  34DB               	retlw	219
   251  09FC  34DB               	retlw	219
   252  09FD  34DB               	retlw	219
   253  09FE  34DB               	retlw	219
   254  09FF  34DB               	retlw	219
   255                           
   256                           ;initializer for write_led@F982
   257  0A00  34FF               	retlw	255
   258  0A01  34FF               	retlw	255
   259  0A02  3418               	retlw	24
   260  0A03  3424               	retlw	36
   261  0A04  3466               	retlw	102
   262  0A05  34C3               	retlw	195
   263  0A06  3481               	retlw	129
   264  0A07  3481               	retlw	129
   265                           
   266                           	psect	idataBANK3
   267  0998                     __pidataBANK3:	
   268                           
   269                           ;initializer for write_led@F980
   270  0998  34FF               	retlw	255
   271  0999  34FF               	retlw	255
   272  099A  3418               	retlw	24
   273  099B  3418               	retlw	24
   274  099C  3418               	retlw	24
   275  099D  3418               	retlw	24
   276  099E  34FF               	retlw	255
   277  099F  34FF               	retlw	255
   278                           
   279                           ;initializer for write_led@F978
   280  09A0  343C               	retlw	60
   281  09A1  347E               	retlw	126
   282  09A2  34C3               	retlw	195
   283  09A3  34C3               	retlw	195
   284  09A4  34C3               	retlw	195
   285  09A5  34C3               	retlw	195
   286  09A6  347E               	retlw	126
   287  09A7  343C               	retlw	60
   288                           
   289                           ;initializer for write_led@F976
   290  09A8  34FF               	retlw	255
   291  09A9  34FF               	retlw	255
   292  09AA  3406               	retlw	6
   293  09AB  3418               	retlw	24
   294  09AC  3418               	retlw	24
   295  09AD  3406               	retlw	6
   296  09AE  34FF               	retlw	255
   297  09AF  34FF               	retlw	255
   298                           
   299                           ;initializer for write_led@F974
   300  09B0  34C0               	retlw	192
   301  09B1  3438               	retlw	56
   302  09B2  341E               	retlw	30
   303  09B3  341B               	retlw	27
   304  09B4  341B               	retlw	27
   305  09B5  341E               	retlw	30
   306  09B6  3438               	retlw	56
   307  09B7  34C0               	retlw	192
   308                           
   309                           ;initializer for write_led@F972
   310  09B8  34C3               	retlw	195
   311  09B9  34C3               	retlw	195
   312  09BA  34C3               	retlw	195
   313  09BB  34FF               	retlw	255
   314  09BC  34FF               	retlw	255
   315  09BD  34C3               	retlw	195
   316  09BE  34C3               	retlw	195
   317  09BF  34C3               	retlw	195
   318                           
   319                           ;initializer for write_led@F970
   320  09C0  343F               	retlw	63
   321  09C1  343F               	retlw	63
   322  09C2  34C0               	retlw	192
   323  09C3  34C0               	retlw	192
   324  09C4  34C0               	retlw	192
   325  09C5  34C0               	retlw	192
   326  09C6  343F               	retlw	63
   327  09C7  343F               	retlw	63
   328  0008                     _PORTD	set	8
   329  0006                     _PORTB	set	6
   330  0086                     _TRISB	set	134
   331  0088                     _TRISD	set	136
   332                           
   333                           	psect	strings
   334  0800                     __pstrings:	
   335  0800                     stringtab:	
   336  0800                     __stringtab:	
   337  0800                     stringcode:	
   338                           ;	String table - string pointers are 1 byte each
   339                           
   340  0800                     stringdir:	
   341  0800  3008               	movlw	high stringdir
   342  0801  008A               	movwf	10
   343  0802  0804               	movf	4,w
   344  0803  0A84               	incf	4,f
   345  0804  0782               	addwf	2,f
   346  0805                     __stringbase:	
   347  0805  3400               	retlw	0
   348  0806                     __end_of__stringtab:	
   349  0806                     STR_1:	
   350  0806  344D               	retlw	77	;'M'
   351  0807  344F               	retlw	79	;'O'
   352  0808  3448               	retlw	72	;'H'
   353  0809  3441               	retlw	65	;'A'
   354  080A  344D               	retlw	77	;'M'
   355  080B  3445               	retlw	69	;'E'
   356  080C  3444               	retlw	68	;'D'
   357  080D  3420               	retlw	32	;' '
   358  080E  3420               	retlw	32	;' '
   359  080F  3441               	retlw	65	;'A'
   360  0810  3448               	retlw	72	;'H'
   361  0811  344D               	retlw	77	;'M'
   362  0812  3445               	retlw	69	;'E'
   363  0813  3444               	retlw	68	;'D'
   364  0814  3400               	retlw	0
   365                           
   366                           ; #config settings
   367  0000                     
   368                           	psect	cinit
   369  07D7                     start_initialization:	
   370  07D7                     __initialization:	
   371                           
   372                           ; Initialize objects allocated to BANK3
   373  07D7  1783               	bsf	3,7	;select IRP bank2
   374  07D8  30C0               	movlw	low (__pdataBANK3+48)
   375  07D9  00FD               	movwf	btemp+-1
   376  07DA  3009               	movlw	high __pidataBANK3
   377  07DB  00FE               	movwf	btemp
   378  07DC  3098               	movlw	low __pidataBANK3
   379  07DD  00FF               	movwf	btemp+1
   380  07DE  3090               	movlw	low __pdataBANK3
   381  07DF  0084               	movwf	4
   382  07E0  120A  118A  2007  120A  118A  	fcall	init_ram0
   383                           
   384                           ; Initialize objects allocated to BANK2
   385  07E5  3050               	movlw	low (__pdataBANK2+64)
   386  07E6  00FD               	movwf	btemp+-1
   387  07E7  3009               	movlw	high __pidataBANK2
   388  07E8  00FE               	movwf	btemp
   389  07E9  30C8               	movlw	low __pidataBANK2
   390  07EA  00FF               	movwf	btemp+1
   391  07EB  3010               	movlw	low __pdataBANK2
   392  07EC  0084               	movwf	4
   393  07ED  120A  118A  2007  120A  118A  	fcall	init_ram0
   394                           
   395                           ; Clear objects allocated to BANK2
   396  07F2  1283               	bcf	3,5	;RP0=0, select bank2
   397  07F3  1703               	bsf	3,6	;RP1=1, select bank2
   398  07F4  01D0               	clrf	__pbssBANK2& (0+127)
   399  07F5  01D1               	clrf	(__pbssBANK2+1)& (0+127)
   400  07F6  01D2               	clrf	(__pbssBANK2+2)& (0+127)
   401  07F7  01D3               	clrf	(__pbssBANK2+3)& (0+127)
   402  07F8  01D4               	clrf	(__pbssBANK2+4)& (0+127)
   403  07F9  01D5               	clrf	(__pbssBANK2+5)& (0+127)
   404  07FA  01D6               	clrf	(__pbssBANK2+6)& (0+127)
   405  07FB  01D7               	clrf	(__pbssBANK2+7)& (0+127)
   406  07FC                     end_of_initialization:	
   407                           ;End of C runtime variable initialization code
   408                           
   409  07FC                     __end_of__initialization:	
   410  07FC  0183               	clrf	3
   411  07FD  120A  158A  291E   	ljmp	_main	;jump to C main() function
   412                           
   413                           	psect	dataBANK3
   414  0190                     __pdataBANK3:	
   415  0190                     write_led@F980:	
   416  0190                     	ds	8
   417  0198                     write_led@F978:	
   418  0198                     	ds	8
   419  01A0                     write_led@F976:	
   420  01A0                     	ds	8
   421  01A8                     write_led@F974:	
   422  01A8                     	ds	8
   423  01B0                     write_led@F972:	
   424  01B0                     	ds	8
   425  01B8                     write_led@F970:	
   426  01B8                     	ds	8
   427                           
   428                           	psect	bssBANK2
   429  0150                     __pbssBANK2:	
   430  0150                     write_led@F998:	
   431  0150                     	ds	8
   432                           
   433                           	psect	dataBANK2
   434  0110                     __pdataBANK2:	
   435  0110                     write_led@F996:	
   436  0110                     	ds	8
   437  0118                     write_led@F994:	
   438  0118                     	ds	8
   439  0120                     write_led@F992:	
   440  0120                     	ds	8
   441  0128                     write_led@F990:	
   442  0128                     	ds	8
   443  0130                     write_led@F988:	
   444  0130                     	ds	8
   445  0138                     write_led@F986:	
   446  0138                     	ds	8
   447  0140                     write_led@F984:	
   448  0140                     	ds	8
   449  0148                     write_led@F982:	
   450  0148                     	ds	8
   451                           
   452                           	psect	inittext
   453  0003                     init_fetch0:	
   454                           ;	Called with low address in FSR and high address in W
   455                           
   456  0003  087E               	movf	btemp,w
   457  0004  008A               	movwf	10
   458  0005  087F               	movf	btemp+1,w
   459  0006  0082               	movwf	2
   460  0007                     init_ram0:	
   461                           ;Called with:
   462                           ;	high address of idata address in btemp 
   463                           ;	low address of idata address in btemp+1 
   464                           ;	low address of data in FSR
   465                           ;	high address + 1 of data in btemp-1
   466                           
   467  0007  120A  118A  2003  120A  118A  	fcall	init_fetch0
   468  000C  0080               	movwf	0
   469  000D  0A84               	incf	4,f
   470  000E  0804               	movf	4,w
   471  000F  067D               	xorwf	btemp+-1,w
   472  0010  1903               	btfsc	3,2
   473  0011  3400               	retlw	0
   474  0012  0AFF               	incf	btemp+1,f
   475  0013  1903               	btfsc	3,2
   476  0014  0AFE               	incf	btemp,f
   477  0015  2807               	goto	init_ram0
   478                           
   479                           	psect	cstackBANK3
   480  01C0                     __pcstackBANK3:	
   481  01C0                     write_led@SRr:	
   482                           
   483                           ; 8 bytes @ 0x0
   484  01C0                     	ds	8
   485  01C8                     write_led@_H:	
   486                           
   487                           ; 8 bytes @ 0x8
   488  01C8                     	ds	8
   489  01D0                     write_led@_SM:	
   490                           
   491                           ; 8 bytes @ 0x10
   492  01D0                     	ds	8
   493  01D8                     write_led@spc:	
   494                           
   495                           ; 8 bytes @ 0x18
   496  01D8                     	ds	8
   497  01E0                     write_led@sp:	
   498                           
   499                           ; 4 bytes @ 0x20
   500  01E0                     	ds	4
   501  01E4                     write_led@cc:	
   502                           
   503                           ; 1 bytes @ 0x24
   504  01E4                     	ds	1
   505  01E5                     write_led@t:	
   506                           
   507                           ; 1 bytes @ 0x25
   508  01E5                     	ds	1
   509  01E6                     write_led@SR:	
   510                           
   511                           ; 2 bytes @ 0x26
   512  01E6                     	ds	2
   513  01E8                     write_led@j:	
   514                           
   515                           ; 1 bytes @ 0x28
   516  01E8                     	ds	1
   517  01E9                     write_led@i:	
   518                           
   519                           ; 1 bytes @ 0x29
   520  01E9                     	ds	1
   521  01EA                     write_led@w:	
   522                           
   523                           ; 1 bytes @ 0x2A
   524  01EA                     	ds	1
   525  01EB                     ??_main:	
   526                           
   527                           ; 1 bytes @ 0x2B
   528  01EB                     	ds	1
   529                           
   530                           	psect	cstackBANK1
   531  00A0                     __pcstackBANK1:	
   532  00A0                     write_led@UR:	
   533                           
   534                           ; 8 bytes @ 0x0
   535  00A0                     	ds	8
   536  00A8                     write_led@IR:	
   537                           
   538                           ; 8 bytes @ 0x8
   539  00A8                     	ds	8
   540  00B0                     write_led@AR:	
   541                           
   542                           ; 8 bytes @ 0x10
   543  00B0                     	ds	8
   544  00B8                     write_led@MR:	
   545                           
   546                           ; 8 bytes @ 0x18
   547  00B8                     	ds	8
   548  00C0                     write_led@OR:	
   549                           
   550                           ; 8 bytes @ 0x20
   551  00C0                     	ds	8
   552  00C8                     write_led@HR:	
   553                           
   554                           ; 8 bytes @ 0x28
   555  00C8                     	ds	8
   556  00D0                     write_led@KR:	
   557                           
   558                           ; 8 bytes @ 0x30
   559  00D0                     	ds	8
   560  00D8                     write_led@ER:	
   561                           
   562                           ; 8 bytes @ 0x38
   563  00D8                     	ds	8
   564  00E0                     write_led@DR:	
   565                           
   566                           ; 8 bytes @ 0x40
   567  00E0                     	ds	8
   568  00E8                     write_led@RR:	
   569                           
   570                           ; 8 bytes @ 0x48
   571  00E8                     	ds	8
   572                           
   573                           	psect	cstackCOMMON
   574  0070                     __pcstackCOMMON:	
   575  0070                     ?_main:	
   576  0070                     ?_strlen:	
   577                           ; 1 bytes @ 0x0
   578                           
   579  0070                     ?__Umul8_16:	
   580                           ; 2 bytes @ 0x0
   581                           
   582  0070                     ?___fladd:	
   583                           ; 2 bytes @ 0x0
   584                           
   585  0070                     ?___xxtofl:	
   586                           ; 4 bytes @ 0x0
   587                           
   588  0070                     __Umul8_16@multiplicand:	
   589                           ; 4 bytes @ 0x0
   590                           
   591  0070                     ___fladd@b:	
   592                           ; 1 bytes @ 0x0
   593                           
   594  0070                     ___xxtofl@val:	
   595                           ; 4 bytes @ 0x0
   596                           
   597                           
   598                           ; 4 bytes @ 0x0
   599  0070                     	ds	2
   600  0072                     ??_strlen:	
   601  0072                     ??__Umul8_16:	
   602                           ; 1 bytes @ 0x2
   603                           
   604                           
   605                           ; 1 bytes @ 0x2
   606  0072                     	ds	1
   607  0073                     strlen@s:	
   608                           
   609                           ; 1 bytes @ 0x3
   610  0073                     	ds	1
   611  0074                     ??___xxtofl:	
   612  0074                     strlen@cp:	
   613                           ; 1 bytes @ 0x4
   614                           
   615  0074                     __Umul8_16@product:	
   616                           ; 1 bytes @ 0x4
   617                           
   618  0074                     ___fladd@a:	
   619                           ; 2 bytes @ 0x4
   620                           
   621                           
   622                           ; 4 bytes @ 0x4
   623  0074                     	ds	2
   624  0076                     __Umul8_16@word_mpld:	
   625                           
   626                           ; 2 bytes @ 0x6
   627  0076                     	ds	2
   628  0078                     ___fladd@signs:	
   629  0078                     ___xxtofl@sign:	
   630                           ; 1 bytes @ 0x8
   631                           
   632  0078                     __Umul8_16@multiplier:	
   633                           ; 1 bytes @ 0x8
   634                           
   635                           
   636                           ; 1 bytes @ 0x8
   637  0078                     	ds	1
   638  0079                     ___fladd@aexp:	
   639  0079                     ___xxtofl@exp:	
   640                           ; 1 bytes @ 0x9
   641                           
   642                           
   643                           ; 1 bytes @ 0x9
   644  0079                     	ds	1
   645  007A                     ___fladd@bexp:	
   646  007A                     ___xxtofl@arg:	
   647                           ; 1 bytes @ 0xA
   648                           
   649                           
   650                           ; 4 bytes @ 0xA
   651  007A                     	ds	1
   652  007B                     ___fladd@grs:	
   653                           
   654                           ; 1 bytes @ 0xB
   655  007B                     	ds	3
   656  007E                     ??___flsub:	
   657                           
   658                           	psect	cstackBANK0
   659  0020                     __pcstackBANK0:	
   660                           ; 1 bytes @ 0xE
   661                           
   662  0020                     ?___flge:	
   663  0020                     ??___fladd:	
   664                           ; 1 bit 
   665                           
   666  0020                     ?___fldiv:	
   667                           ; 1 bytes @ 0x0
   668                           
   669  0020                     ___flge@ff1:	
   670                           ; 4 bytes @ 0x0
   671                           
   672  0020                     ___fldiv@a:	
   673                           ; 4 bytes @ 0x0
   674                           
   675                           
   676                           ; 4 bytes @ 0x0
   677  0020                     	ds	4
   678  0024                     ___flge@ff2:	
   679  0024                     ___fldiv@b:	
   680                           ; 4 bytes @ 0x4
   681                           
   682                           
   683                           ; 4 bytes @ 0x4
   684  0024                     	ds	4
   685  0028                     ??___flge:	
   686  0028                     ??___fldiv:	
   687                           ; 1 bytes @ 0x8
   688                           
   689                           
   690                           ; 1 bytes @ 0x8
   691  0028                     	ds	5
   692  002D                     ___fldiv@rem:	
   693                           
   694                           ; 4 bytes @ 0xD
   695  002D                     	ds	4
   696  0031                     ___fldiv@sign:	
   697                           
   698                           ; 1 bytes @ 0x11
   699  0031                     	ds	1
   700  0032                     ___fldiv@new_exp:	
   701                           
   702                           ; 2 bytes @ 0x12
   703  0032                     	ds	2
   704  0034                     ___fldiv@grs:	
   705                           
   706                           ; 4 bytes @ 0x14
   707  0034                     	ds	4
   708  0038                     ___fldiv@bexp:	
   709                           
   710                           ; 1 bytes @ 0x18
   711  0038                     	ds	1
   712  0039                     ___fldiv@aexp:	
   713                           
   714                           ; 1 bytes @ 0x19
   715  0039                     	ds	1
   716  003A                     ?___flmul:	
   717  003A                     ___flmul@b:	
   718                           ; 4 bytes @ 0x1A
   719                           
   720                           
   721                           ; 4 bytes @ 0x1A
   722  003A                     	ds	4
   723  003E                     ___flmul@a:	
   724                           
   725                           ; 4 bytes @ 0x1E
   726  003E                     	ds	4
   727  0042                     ??___flmul:	
   728                           
   729                           ; 1 bytes @ 0x22
   730  0042                     	ds	5
   731  0047                     ___flmul@sign:	
   732                           
   733                           ; 1 bytes @ 0x27
   734  0047                     	ds	1
   735  0048                     ___flmul@grs:	
   736                           
   737                           ; 4 bytes @ 0x28
   738  0048                     	ds	4
   739  004C                     ___flmul@aexp:	
   740                           
   741                           ; 1 bytes @ 0x2C
   742  004C                     	ds	1
   743  004D                     ___flmul@bexp:	
   744                           
   745                           ; 1 bytes @ 0x2D
   746  004D                     	ds	1
   747  004E                     ___flmul@prod:	
   748                           
   749                           ; 4 bytes @ 0x2E
   750  004E                     	ds	4
   751  0052                     ___flmul@temp:	
   752                           
   753                           ; 2 bytes @ 0x32
   754  0052                     	ds	2
   755  0054                     ?___flsub:	
   756  0054                     ___flsub@a:	
   757                           ; 4 bytes @ 0x34
   758                           
   759                           
   760                           ; 4 bytes @ 0x34
   761  0054                     	ds	4
   762  0058                     ___flsub@b:	
   763                           
   764                           ; 4 bytes @ 0x38
   765  0058                     	ds	4
   766  005C                     ?_write_led:	
   767  005C                     write_led@wrds:	
   768                           ; 1 bytes @ 0x3C
   769                           
   770                           
   771                           ; 1 bytes @ 0x3C
   772  005C                     	ds	1
   773  005D                     ??_write_led:	
   774                           
   775                           ; 1 bytes @ 0x3D
   776  005D                     	ds	8
   777  0065                     write_led@_H2:	
   778                           
   779                           ; 8 bytes @ 0x45
   780  0065                     	ds	8
   781  006D                     write_led@FR:	
   782                           
   783                           ; 2 bytes @ 0x4D
   784  006D                     	ds	2
   785  006F                     write_led@ti:	
   786                           
   787                           ; 1 bytes @ 0x4F
   788  006F                     	ds	1
   789                           
   790                           	psect	maintext
   791  091E                     __pmaintext:	
   792 ;;
   793 ;;Main: autosize = 0, tempsize = 1, incstack = 0, save=0
   794 ;;
   795 ;; *************** function _main *****************
   796 ;; Defined at:
   797 ;;		line 17 in file "mainLMv4.c"
   798 ;; Parameters:    Size  Location     Type
   799 ;;		None
   800 ;; Auto vars:     Size  Location     Type
   801 ;;		None
   802 ;; Return value:  Size  Location     Type
   803 ;;                  1    wreg      void 
   804 ;; Registers used:
   805 ;;		wreg, fsr0l, fsr0h, status,2, status,0, btemp+1, pclath, cstack
   806 ;; Tracked objects:
   807 ;;		On entry : B00/0
   808 ;;		On exit  : 0/0
   809 ;;		Unchanged: 0/0
   810 ;; Data sizes:     COMMON   BANK0   BANK1   BANK3   BANK2
   811 ;;      Params:         0       0       0       0       0
   812 ;;      Locals:         0       0       0       0       0
   813 ;;      Temps:          0       0       0       1       0
   814 ;;      Totals:         0       0       0       1       0
   815 ;;Total ram usage:        1 bytes
   816 ;; Hardware stack levels required when called:    3
   817 ;; This function calls:
   818 ;;		_write_led
   819 ;; This function is called by:
   820 ;;		Startup code after reset
   821 ;; This function uses a non-reentrant model
   822 ;;
   823                           
   824                           
   825                           ;psect for function _main
   826  091E                     _main:	
   827  091E                     l19:	
   828                           ;incstack = 0
   829                           ; Regs used in _main: [wreg-fsr0h+status,2+status,0+btemp+1+pclath+cstack]
   830                           ;mainLMv4.c: 18:     while (1){
   831                           
   832  091E                     l2144:	
   833                           
   834                           ;mainLMv4.c: 19:     write_led(240,"MOHAMED  AHMED");
   835  091E  3001               	movlw	(low ((STR_1-__stringbase)| (0+32768)))& (0+255)
   836  091F  1683               	bsf	3,5	;RP0=1, select bank3
   837  0920  1703               	bsf	3,6	;RP1=1, select bank3
   838  0921  00EB               	movwf	??_main^(0+384)
   839  0922  086B               	movf	??_main^(0+384),w
   840  0923  1283               	bcf	3,5	;RP0=0, select bank0
   841  0924  1303               	bcf	3,6	;RP1=0, select bank0
   842  0925  00DC               	movwf	write_led@wrds
   843  0926  30F0               	movlw	240
   844  0927  120A  118A  2352  120A  158A  	fcall	_write_led
   845  092C  291E               	goto	l19
   846  092D  120A  118A  2800   	ljmp	start
   847  0930                     __end_of_main:	
   848                           
   849                           	psect	text1
   850  0352                     __ptext1:	
   851 ;; *************** function _write_led *****************
   852 ;; Defined at:
   853 ;;		line 24 in file "mainLMv4.c"
   854 ;; Parameters:    Size  Location     Type
   855 ;;  ti              1    wreg     unsigned char 
   856 ;;  wrds            1   60[BANK0 ] PTR unsigned char 
   857 ;;		 -> STR_1(15), 
   858 ;; Auto vars:     Size  Location     Type
   859 ;;  ti              1   79[BANK0 ] unsigned char 
   860 ;;  i               1   41[BANK3 ] unsigned char 
   861 ;;  j               1   40[BANK3 ] unsigned char 
   862 ;;  w               1   42[BANK3 ] unsigned char 
   863 ;;  spc             8   24[BANK3 ] unsigned char [8]
   864 ;;  _SM             8   16[BANK3 ] unsigned char [8]
   865 ;;  _H              8    8[BANK3 ] unsigned char [8]
   866 ;;  SRr             8    0[BANK3 ] unsigned char [8]
   867 ;;  RR              8   72[BANK1 ] unsigned char [8]
   868 ;;  DR              8   64[BANK1 ] unsigned char [8]
   869 ;;  ER              8   56[BANK1 ] unsigned char [8]
   870 ;;  KR              8   48[BANK1 ] unsigned char [8]
   871 ;;  HR              8   40[BANK1 ] unsigned char [8]
   872 ;;  OR              8   32[BANK1 ] unsigned char [8]
   873 ;;  MR              8   24[BANK1 ] unsigned char [8]
   874 ;;  AR              8   16[BANK1 ] unsigned char [8]
   875 ;;  IR              8    8[BANK1 ] unsigned char [8]
   876 ;;  UR              8    0[BANK1 ] unsigned char [8]
   877 ;;  _H2             8   69[BANK0 ] unsigned char [8]
   878 ;;  sp              4   32[BANK3 ] float 
   879 ;;  SR              2   38[BANK3 ] PTR unsigned char 
   880 ;;		 -> write_led@spc(8), write_led@_SM(8), write_led@_H(8), write_led@SRr(8), 
   881 ;;		 -> write_led@RR(8), write_led@DR(8), write_led@ER(8), write_led@KR(8), 
   882 ;;		 -> write_led@HR(8), write_led@OR(8), write_led@MR(8), write_led@AR(8), 
   883 ;;		 -> write_led@IR(8), write_led@UR(8), 
   884 ;;  FR              2   77[BANK0 ] PTR unsigned char 
   885 ;;		 -> write_led@spc(8), write_led@_SM(8), write_led@_H(8), write_led@SRr(8), 
   886 ;;		 -> write_led@RR(8), write_led@DR(8), write_led@ER(8), write_led@KR(8), 
   887 ;;		 -> write_led@HR(8), write_led@OR(8), write_led@MR(8), write_led@AR(8), 
   888 ;;		 -> write_led@IR(8), write_led@UR(8), 
   889 ;;  t               1   37[BANK3 ] unsigned char 
   890 ;;  cc              1   36[BANK3 ] unsigned char 
   891 ;; Return value:  Size  Location     Type
   892 ;;                  1    wreg      void 
   893 ;; Registers used:
   894 ;;		wreg, fsr0l, fsr0h, status,2, status,0, btemp+1, pclath, cstack
   895 ;; Tracked objects:
   896 ;;		On entry : 0/0
   897 ;;		On exit  : 0/0
   898 ;;		Unchanged: 0/0
   899 ;; Data sizes:     COMMON   BANK0   BANK1   BANK3   BANK2
   900 ;;      Params:         0       1       0       0       0
   901 ;;      Locals:         0      11      80      43       0
   902 ;;      Temps:          0       8       0       0       0
   903 ;;      Totals:         0      20      80      43       0
   904 ;;Total ram usage:      143 bytes
   905 ;; Hardware stack levels used:    1
   906 ;; Hardware stack levels required when called:    2
   907 ;; This function calls:
   908 ;;		___fldiv
   909 ;;		___flge
   910 ;;		___flmul
   911 ;;		___flsub
   912 ;;		___xxtofl
   913 ;;		_strlen
   914 ;; This function is called by:
   915 ;;		_main
   916 ;; This function uses a non-reentrant model
   917 ;;
   918                           
   919                           
   920                           ;psect for function _write_led
   921  0352                     _write_led:	
   922                           
   923                           ;incstack = 0
   924                           ; Regs used in _write_led: [wreg-fsr0h+status,2+status,0+btemp+1+pclath+cstack]
   925                           ;write_led@ti stored from wreg
   926  0352  1283               	bcf	3,5	;RP0=0, select bank0
   927  0353  1303               	bcf	3,6	;RP1=0, select bank0
   928  0354  00EF               	movwf	write_led@ti
   929  0355                     l1998:	
   930                           
   931                           ;mainLMv4.c: 26:     TRISD = 0x00;
   932  0355  1683               	bsf	3,5	;RP0=1, select bank1
   933  0356  1303               	bcf	3,6	;RP1=0, select bank1
   934  0357  0188               	clrf	8	;volatile
   935                           
   936                           ;mainLMv4.c: 27:     TRISB = 0x00;
   937  0358  0186               	clrf	6	;volatile
   938  0359                     l2000:	
   939                           
   940                           ;mainLMv4.c: 29:     unsigned char UR [] = {0b00111111,0b0111111,0b11000000,0b11000000,0
      +                          b11000000,0b11000000,0b0111111,0b00111111};
   941  0359  30A0               	movlw	write_led@UR& (0+255)
   942  035A  0084               	movwf	4
   943  035B  30B8               	movlw	low write_led@F970
   944  035C  1283               	bcf	3,5	;RP0=0, select bank0
   945  035D  1303               	bcf	3,6	;RP1=0, select bank0
   946  035E  00DD               	movwf	??_write_led
   947  035F  0804               	movf	4,w
   948  0360  00DE               	movwf	??_write_led+1
   949  0361  3008               	movlw	8
   950  0362  00DF               	movwf	??_write_led+2
   951  0363                     u3160:	
   952  0363  085D               	movf	??_write_led,w
   953  0364  0084               	movwf	4
   954  0365  1783               	bsf	3,7	;select IRP bank3
   955  0366  0800               	movf	0,w
   956  0367  00E0               	movwf	??_write_led+3
   957  0368  0ADD               	incf	??_write_led,f
   958  0369  085E               	movf	??_write_led+1,w
   959  036A  0084               	movwf	4
   960  036B  1383               	bcf	3,7	;select IRP bank1
   961  036C  0860               	movf	??_write_led+3,w
   962  036D  0080               	movwf	0
   963  036E  0ADE               	incf	??_write_led+1,f
   964  036F  0BDF               	decfsz	??_write_led+2,f
   965  0370  2B63               	goto	u3160
   966  0371                     l2002:	
   967                           
   968                           ;mainLMv4.c: 30:     unsigned char IR [] = {0b11000011,0b11000011,0b11000011,0b11111111,
      +                          0b11111111,0b11000011,0b11000011,0b11000011};
   969  0371  30A8               	movlw	write_led@IR& (0+255)
   970  0372  0084               	movwf	4
   971  0373  30B0               	movlw	low write_led@F972
   972  0374  00DD               	movwf	??_write_led
   973  0375  0804               	movf	4,w
   974  0376  00DE               	movwf	??_write_led+1
   975  0377  3008               	movlw	8
   976  0378  00DF               	movwf	??_write_led+2
   977  0379                     u3170:	
   978  0379  085D               	movf	??_write_led,w
   979  037A  0084               	movwf	4
   980  037B  1783               	bsf	3,7	;select IRP bank3
   981  037C  0800               	movf	0,w
   982  037D  00E0               	movwf	??_write_led+3
   983  037E  0ADD               	incf	??_write_led,f
   984  037F  085E               	movf	??_write_led+1,w
   985  0380  0084               	movwf	4
   986  0381  1383               	bcf	3,7	;select IRP bank1
   987  0382  0860               	movf	??_write_led+3,w
   988  0383  0080               	movwf	0
   989  0384  0ADE               	incf	??_write_led+1,f
   990  0385  0BDF               	decfsz	??_write_led+2,f
   991  0386  2B79               	goto	u3170
   992  0387                     l2004:	
   993                           
   994                           ;mainLMv4.c: 31:     unsigned char AR [] = {0b11000000,0b00111000,0b00011110,0b000011011
      +                          ,0b000011011,0b00011110,0b00111000,0b11000000};
   995  0387  30B0               	movlw	write_led@AR& (0+255)
   996  0388  0084               	movwf	4
   997  0389  30A8               	movlw	low write_led@F974
   998  038A  00DD               	movwf	??_write_led
   999  038B  0804               	movf	4,w
  1000  038C  00DE               	movwf	??_write_led+1
  1001  038D  3008               	movlw	8
  1002  038E  00DF               	movwf	??_write_led+2
  1003  038F                     u3180:	
  1004  038F  085D               	movf	??_write_led,w
  1005  0390  0084               	movwf	4
  1006  0391  1783               	bsf	3,7	;select IRP bank3
  1007  0392  0800               	movf	0,w
  1008  0393  00E0               	movwf	??_write_led+3
  1009  0394  0ADD               	incf	??_write_led,f
  1010  0395  085E               	movf	??_write_led+1,w
  1011  0396  0084               	movwf	4
  1012  0397  1383               	bcf	3,7	;select IRP bank1
  1013  0398  0860               	movf	??_write_led+3,w
  1014  0399  0080               	movwf	0
  1015  039A  0ADE               	incf	??_write_led+1,f
  1016  039B  0BDF               	decfsz	??_write_led+2,f
  1017  039C  2B8F               	goto	u3180
  1018  039D                     l2006:	
  1019                           
  1020                           ;mainLMv4.c: 32:     unsigned char MR [] = {0xFF,0xFF,0b00000110,0b00011000,0b00011000,0
      +                          b00000110,0xFF,0xFF};
  1021  039D  30B8               	movlw	write_led@MR& (0+255)
  1022  039E  0084               	movwf	4
  1023  039F  30A0               	movlw	low write_led@F976
  1024  03A0  00DD               	movwf	??_write_led
  1025  03A1  0804               	movf	4,w
  1026  03A2  00DE               	movwf	??_write_led+1
  1027  03A3  3008               	movlw	8
  1028  03A4  00DF               	movwf	??_write_led+2
  1029  03A5                     u3190:	
  1030  03A5  085D               	movf	??_write_led,w
  1031  03A6  0084               	movwf	4
  1032  03A7  1783               	bsf	3,7	;select IRP bank3
  1033  03A8  0800               	movf	0,w
  1034  03A9  00E0               	movwf	??_write_led+3
  1035  03AA  0ADD               	incf	??_write_led,f
  1036  03AB  085E               	movf	??_write_led+1,w
  1037  03AC  0084               	movwf	4
  1038  03AD  1383               	bcf	3,7	;select IRP bank1
  1039  03AE  0860               	movf	??_write_led+3,w
  1040  03AF  0080               	movwf	0
  1041  03B0  0ADE               	incf	??_write_led+1,f
  1042  03B1  0BDF               	decfsz	??_write_led+2,f
  1043  03B2  2BA5               	goto	u3190
  1044  03B3                     l2008:	
  1045                           
  1046                           ;mainLMv4.c: 33:     unsigned char OR [] = {0b00111100,0b01111110,0b11000011,0b11000011,
      +                          0b11000011,0b11000011,0b01111110,0b00111100};
  1047  03B3  30C0               	movlw	write_led@OR& (0+255)
  1048  03B4  0084               	movwf	4
  1049  03B5  3098               	movlw	low write_led@F978
  1050  03B6  00DD               	movwf	??_write_led
  1051  03B7  0804               	movf	4,w
  1052  03B8  00DE               	movwf	??_write_led+1
  1053  03B9  3008               	movlw	8
  1054  03BA  00DF               	movwf	??_write_led+2
  1055  03BB                     u3200:	
  1056  03BB  085D               	movf	??_write_led,w
  1057  03BC  0084               	movwf	4
  1058  03BD  1783               	bsf	3,7	;select IRP bank3
  1059  03BE  0800               	movf	0,w
  1060  03BF  00E0               	movwf	??_write_led+3
  1061  03C0  0ADD               	incf	??_write_led,f
  1062  03C1  085E               	movf	??_write_led+1,w
  1063  03C2  0084               	movwf	4
  1064  03C3  1383               	bcf	3,7	;select IRP bank1
  1065  03C4  0860               	movf	??_write_led+3,w
  1066  03C5  0080               	movwf	0
  1067  03C6  0ADE               	incf	??_write_led+1,f
  1068  03C7  0BDF               	decfsz	??_write_led+2,f
  1069  03C8  2BBB               	goto	u3200
  1070  03C9                     l2010:	
  1071                           
  1072                           ;mainLMv4.c: 34:     unsigned char HR [] = {0xFF,0xFF,0b0011000,0b0011000,0b0011000,0b00
      +                          11000,0xFF,0xFF};
  1073  03C9  30C8               	movlw	write_led@HR& (0+255)
  1074  03CA  0084               	movwf	4
  1075  03CB  3090               	movlw	low write_led@F980
  1076  03CC  00DD               	movwf	??_write_led
  1077  03CD  0804               	movf	4,w
  1078  03CE  00DE               	movwf	??_write_led+1
  1079  03CF  3008               	movlw	8
  1080  03D0  00DF               	movwf	??_write_led+2
  1081  03D1                     u3210:	
  1082  03D1  085D               	movf	??_write_led,w
  1083  03D2  0084               	movwf	4
  1084  03D3  1783               	bsf	3,7	;select IRP bank3
  1085  03D4  0800               	movf	0,w
  1086  03D5  00E0               	movwf	??_write_led+3
  1087  03D6  0ADD               	incf	??_write_led,f
  1088  03D7  085E               	movf	??_write_led+1,w
  1089  03D8  0084               	movwf	4
  1090  03D9  1383               	bcf	3,7	;select IRP bank1
  1091  03DA  0860               	movf	??_write_led+3,w
  1092  03DB  0080               	movwf	0
  1093  03DC  0ADE               	incf	??_write_led+1,f
  1094  03DD  0BDF               	decfsz	??_write_led+2,f
  1095  03DE  2BD1               	goto	u3210
  1096  03DF                     l2012:	
  1097                           
  1098                           ;mainLMv4.c: 35:     unsigned char KR [] = {0xFF,0xFF,0b00011000,0b00100100,0b01100110,0
      +                          b11000011,0b10000001,0b10000001};
  1099  03DF  30D0               	movlw	write_led@KR& (0+255)
  1100  03E0  0084               	movwf	4
  1101  03E1  3048               	movlw	low write_led@F982
  1102  03E2  00DD               	movwf	??_write_led
  1103  03E3  0804               	movf	4,w
  1104  03E4  00DE               	movwf	??_write_led+1
  1105  03E5  3008               	movlw	8
  1106  03E6  00DF               	movwf	??_write_led+2
  1107  03E7                     u3220:	
  1108  03E7  085D               	movf	??_write_led,w
  1109  03E8  0084               	movwf	4
  1110  03E9  1783               	bsf	3,7	;select IRP bank2
  1111  03EA  0800               	movf	0,w
  1112  03EB  00E0               	movwf	??_write_led+3
  1113  03EC  0ADD               	incf	??_write_led,f
  1114  03ED  085E               	movf	??_write_led+1,w
  1115  03EE  0084               	movwf	4
  1116  03EF  1383               	bcf	3,7	;select IRP bank1
  1117  03F0  0860               	movf	??_write_led+3,w
  1118  03F1  0080               	movwf	0
  1119  03F2  0ADE               	incf	??_write_led+1,f
  1120  03F3  0BDF               	decfsz	??_write_led+2,f
  1121  03F4  2BE7               	goto	u3220
  1122  03F5                     l2014:	
  1123                           
  1124                           ;mainLMv4.c: 36:     unsigned char ER [] = {0xFF,0xFF,0b11011011,0b11011011,0b11011011,0
      +                          b11011011,0b11011011,0b11011011};
  1125  03F5  30D8               	movlw	write_led@ER& (0+255)
  1126  03F6  0084               	movwf	4
  1127  03F7  3040               	movlw	low write_led@F984
  1128  03F8  00DD               	movwf	??_write_led
  1129  03F9  0804               	movf	4,w
  1130  03FA  00DE               	movwf	??_write_led+1
  1131  03FB  3008               	movlw	8
  1132  03FC  00DF               	movwf	??_write_led+2
  1133  03FD                     u3230:	
  1134  03FD  085D               	movf	??_write_led,w
  1135  03FE  0084               	movwf	4
  1136  03FF  1783               	bsf	3,7	;select IRP bank2
  1137  0400  0800               	movf	0,w
  1138  0401  00E0               	movwf	??_write_led+3
  1139  0402  0ADD               	incf	??_write_led,f
  1140  0403  085E               	movf	??_write_led+1,w
  1141  0404  0084               	movwf	4
  1142  0405  1383               	bcf	3,7	;select IRP bank1
  1143  0406  0860               	movf	??_write_led+3,w
  1144  0407  0080               	movwf	0
  1145  0408  0ADE               	incf	??_write_led+1,f
  1146  0409  0BDF               	decfsz	??_write_led+2,f
  1147  040A  2BFD               	goto	u3230
  1148  040B                     l2016:	
  1149                           
  1150                           ;mainLMv4.c: 37:     unsigned char DR [] = {0xFF,0xFF,0b11000011,0b11000011,0b11000011,0
      +                          b11000011,0b01111110,0b00111100};
  1151  040B  30E0               	movlw	write_led@DR& (0+255)
  1152  040C  0084               	movwf	4
  1153  040D  3038               	movlw	low write_led@F986
  1154  040E  00DD               	movwf	??_write_led
  1155  040F  0804               	movf	4,w
  1156  0410  00DE               	movwf	??_write_led+1
  1157  0411  3008               	movlw	8
  1158  0412  00DF               	movwf	??_write_led+2
  1159  0413                     u3240:	
  1160  0413  085D               	movf	??_write_led,w
  1161  0414  0084               	movwf	4
  1162  0415  1783               	bsf	3,7	;select IRP bank2
  1163  0416  0800               	movf	0,w
  1164  0417  00E0               	movwf	??_write_led+3
  1165  0418  0ADD               	incf	??_write_led,f
  1166  0419  085E               	movf	??_write_led+1,w
  1167  041A  0084               	movwf	4
  1168  041B  1383               	bcf	3,7	;select IRP bank1
  1169  041C  0860               	movf	??_write_led+3,w
  1170  041D  0080               	movwf	0
  1171  041E  0ADE               	incf	??_write_led+1,f
  1172  041F  0BDF               	decfsz	??_write_led+2,f
  1173  0420  2C13               	goto	u3240
  1174  0421                     l2018:	
  1175                           
  1176                           ;mainLMv4.c: 38:     unsigned char RR [] = {0b11111111,0b11111111,0b00011011,0b00011011,
      +                          0b00111011,0b01111011,0b11011110,0b10011100};
  1177  0421  30E8               	movlw	write_led@RR& (0+255)
  1178  0422  0084               	movwf	4
  1179  0423  3030               	movlw	low write_led@F988
  1180  0424  00DD               	movwf	??_write_led
  1181  0425  0804               	movf	4,w
  1182  0426  00DE               	movwf	??_write_led+1
  1183  0427  3008               	movlw	8
  1184  0428  00DF               	movwf	??_write_led+2
  1185  0429                     u3250:	
  1186  0429  085D               	movf	??_write_led,w
  1187  042A  0084               	movwf	4
  1188  042B  1783               	bsf	3,7	;select IRP bank2
  1189  042C  0800               	movf	0,w
  1190  042D  00E0               	movwf	??_write_led+3
  1191  042E  0ADD               	incf	??_write_led,f
  1192  042F  085E               	movf	??_write_led+1,w
  1193  0430  0084               	movwf	4
  1194  0431  1383               	bcf	3,7	;select IRP bank1
  1195  0432  0860               	movf	??_write_led+3,w
  1196  0433  0080               	movwf	0
  1197  0434  0ADE               	incf	??_write_led+1,f
  1198  0435  0BDF               	decfsz	??_write_led+2,f
  1199  0436  2C29               	goto	u3250
  1200  0437                     l2020:	
  1201                           
  1202                           ;mainLMv4.c: 39:     unsigned char SRr[] = {0b11011111,0b11011011,0b11011011,0b11011011,
      +                          0b11011011,0b11011011,0b11111011,0b11111011};
  1203  0437  30C0               	movlw	write_led@SRr& (0+255)
  1204  0438  0084               	movwf	4
  1205  0439  3028               	movlw	low write_led@F990
  1206  043A  00DD               	movwf	??_write_led
  1207  043B  0804               	movf	4,w
  1208  043C  00DE               	movwf	??_write_led+1
  1209  043D  3008               	movlw	8
  1210  043E  00DF               	movwf	??_write_led+2
  1211  043F                     u3260:	
  1212  043F  085D               	movf	??_write_led,w
  1213  0440  0084               	movwf	4
  1214  0441  1783               	bsf	3,7	;select IRP bank2
  1215  0442  0800               	movf	0,w
  1216  0443  00E0               	movwf	??_write_led+3
  1217  0444  0ADD               	incf	??_write_led,f
  1218  0445  085E               	movf	??_write_led+1,w
  1219  0446  0084               	movwf	4
  1220  0447  0860               	movf	??_write_led+3,w
  1221  0448  0080               	movwf	0
  1222  0449  0ADE               	incf	??_write_led+1,f
  1223  044A  0BDF               	decfsz	??_write_led+2,f
  1224  044B  2C3F               	goto	u3260
  1225  044C                     l2022:	
  1226                           
  1227                           ;mainLMv4.c: 41:     unsigned char _H[] = {0b00001100,0b00011110,0b00111100,0b01111100,0
      +                          b01111100,0b00111100,0b00011110,0b00001100};
  1228  044C  30C8               	movlw	write_led@_H& (0+255)
  1229  044D  0084               	movwf	4
  1230  044E  3020               	movlw	low write_led@F992
  1231  044F  00DD               	movwf	??_write_led
  1232  0450  0804               	movf	4,w
  1233  0451  00DE               	movwf	??_write_led+1
  1234  0452  3008               	movlw	8
  1235  0453  00DF               	movwf	??_write_led+2
  1236  0454                     u3270:	
  1237  0454  085D               	movf	??_write_led,w
  1238  0455  0084               	movwf	4
  1239  0456  1783               	bsf	3,7	;select IRP bank2
  1240  0457  0800               	movf	0,w
  1241  0458  00E0               	movwf	??_write_led+3
  1242  0459  0ADD               	incf	??_write_led,f
  1243  045A  085E               	movf	??_write_led+1,w
  1244  045B  0084               	movwf	4
  1245  045C  0860               	movf	??_write_led+3,w
  1246  045D  0080               	movwf	0
  1247  045E  0ADE               	incf	??_write_led+1,f
  1248  045F  0BDF               	decfsz	??_write_led+2,f
  1249  0460  2C54               	goto	u3270
  1250  0461                     l2024:	
  1251                           
  1252                           ;mainLMv4.c: 42:     unsigned char _H2[] = {0b00001110,0b00011111,0b00111110,0b11111100,
      +                          0b00111110,0b00011111,0b00001110,0x00};
  1253  0461  3065               	movlw	write_led@_H2& (0+255)
  1254  0462  0084               	movwf	4
  1255  0463  3018               	movlw	low write_led@F994
  1256  0464  00DD               	movwf	??_write_led
  1257  0465  0804               	movf	4,w
  1258  0466  00DE               	movwf	??_write_led+1
  1259  0467  3008               	movlw	8
  1260  0468  00DF               	movwf	??_write_led+2
  1261  0469                     u3280:	
  1262  0469  085D               	movf	??_write_led,w
  1263  046A  0084               	movwf	4
  1264  046B  1783               	bsf	3,7	;select IRP bank2
  1265  046C  0800               	movf	0,w
  1266  046D  00E0               	movwf	??_write_led+3
  1267  046E  0ADD               	incf	??_write_led,f
  1268  046F  085E               	movf	??_write_led+1,w
  1269  0470  0084               	movwf	4
  1270  0471  1383               	bcf	3,7	;select IRP bank0
  1271  0472  0860               	movf	??_write_led+3,w
  1272  0473  0080               	movwf	0
  1273  0474  0ADE               	incf	??_write_led+1,f
  1274  0475  0BDF               	decfsz	??_write_led+2,f
  1275  0476  2C69               	goto	u3280
  1276  0477                     l2026:	
  1277                           
  1278                           ;mainLMv4.c: 43:     unsigned char _SM[] = {0b00110000,0b01110110,0b11000110,0b11000000,
      +                          0b11000000,0b11000110,0b01110110,0b00110000};
  1279  0477  30D0               	movlw	write_led@_SM& (0+255)
  1280  0478  0084               	movwf	4
  1281  0479  3010               	movlw	low write_led@F996
  1282  047A  00DD               	movwf	??_write_led
  1283  047B  0804               	movf	4,w
  1284  047C  00DE               	movwf	??_write_led+1
  1285  047D  3008               	movlw	8
  1286  047E  00DF               	movwf	??_write_led+2
  1287  047F                     u3290:	
  1288  047F  085D               	movf	??_write_led,w
  1289  0480  0084               	movwf	4
  1290  0481  1783               	bsf	3,7	;select IRP bank2
  1291  0482  0800               	movf	0,w
  1292  0483  00E0               	movwf	??_write_led+3
  1293  0484  0ADD               	incf	??_write_led,f
  1294  0485  085E               	movf	??_write_led+1,w
  1295  0486  0084               	movwf	4
  1296  0487  0860               	movf	??_write_led+3,w
  1297  0488  0080               	movwf	0
  1298  0489  0ADE               	incf	??_write_led+1,f
  1299  048A  0BDF               	decfsz	??_write_led+2,f
  1300  048B  2C7F               	goto	u3290
  1301  048C                     l2028:	
  1302                           
  1303                           ;mainLMv4.c: 44:     unsigned char spc[] = {0,0,0,0,0,0,0,0};
  1304  048C  30D8               	movlw	write_led@spc& (0+255)
  1305  048D  0084               	movwf	4
  1306  048E  3008               	movlw	8
  1307  048F  00FF               	movwf	btemp+1
  1308  0490                     u3300:	
  1309  0490  0180               	clrf	0
  1310  0491  0A84               	incf	4,f
  1311  0492  0BFF               	decfsz	btemp+1,f
  1312  0493  2C90               	goto	u3300
  1313  0494                     l2030:	
  1314                           
  1315                           ;mainLMv4.c: 46:     unsigned char cc = 0b10000000;
  1316  0494  3080               	movlw	128
  1317  0495  00DD               	movwf	??_write_led
  1318  0496  085D               	movf	??_write_led,w
  1319  0497  1683               	bsf	3,5	;RP0=1, select bank3
  1320  0498  1703               	bsf	3,6	;RP1=1, select bank3
  1321  0499  00E4               	movwf	write_led@cc^(0+384)
  1322  049A                     l2032:	
  1323                           
  1324                           ;mainLMv4.c: 47:     float sp = 50.0-((float)ti/255.0)*50.0;
  1325  049A  3042               	movlw	66
  1326  049B  1283               	bcf	3,5	;RP0=0, select bank0
  1327  049C  1303               	bcf	3,6	;RP1=0, select bank0
  1328  049D  00BD               	movwf	___flmul@b+3
  1329  049E  3048               	movlw	72
  1330  049F  00BC               	movwf	___flmul@b+2
  1331  04A0  3000               	movlw	0
  1332  04A1  00BB               	movwf	___flmul@b+1
  1333  04A2  3000               	movlw	0
  1334  04A3  00BA               	movwf	___flmul@b
  1335  04A4  3043               	movlw	67
  1336  04A5  00A3               	movwf	___fldiv@a+3
  1337  04A6  307F               	movlw	127
  1338  04A7  00A2               	movwf	___fldiv@a+2
  1339  04A8  3000               	movlw	0
  1340  04A9  00A1               	movwf	___fldiv@a+1
  1341  04AA  3000               	movlw	0
  1342  04AB  00A0               	movwf	___fldiv@a
  1343  04AC  086F               	movf	write_led@ti,w
  1344  04AD  00DD               	movwf	??_write_led
  1345  04AE  01DE               	clrf	??_write_led+1
  1346  04AF  01DF               	clrf	??_write_led+2
  1347  04B0  01E0               	clrf	??_write_led+3
  1348  04B1  0860               	movf	??_write_led+3,w
  1349  04B2  00F3               	movwf	___xxtofl@val+3
  1350  04B3  085F               	movf	??_write_led+2,w
  1351  04B4  00F2               	movwf	___xxtofl@val+2
  1352  04B5  085E               	movf	??_write_led+1,w
  1353  04B6  00F1               	movwf	___xxtofl@val+1
  1354  04B7  085D               	movf	??_write_led,w
  1355  04B8  00F0               	movwf	___xxtofl@val
  1356  04B9  3000               	movlw	0
  1357  04BA  120A  158A  2208  120A  118A  	fcall	___xxtofl
  1358  04BF  0873               	movf	?___xxtofl+3,w
  1359  04C0  1283               	bcf	3,5	;RP0=0, select bank0
  1360  04C1  1303               	bcf	3,6	;RP1=0, select bank0
  1361  04C2  00A7               	movwf	___fldiv@b+3
  1362  04C3  0872               	movf	?___xxtofl+2,w
  1363  04C4  00A6               	movwf	___fldiv@b+2
  1364  04C5  0871               	movf	?___xxtofl+1,w
  1365  04C6  00A5               	movwf	___fldiv@b+1
  1366  04C7  0870               	movf	?___xxtofl,w
  1367  04C8  00A4               	movwf	___fldiv@b
  1368  04C9  120A  158A  22C2  120A  118A  	fcall	___fldiv
  1369  04CE  1283               	bcf	3,5	;RP0=0, select bank0
  1370  04CF  1303               	bcf	3,6	;RP1=0, select bank0
  1371  04D0  0823               	movf	?___fldiv+3,w
  1372  04D1  00C1               	movwf	___flmul@a+3
  1373  04D2  0822               	movf	?___fldiv+2,w
  1374  04D3  00C0               	movwf	___flmul@a+2
  1375  04D4  0821               	movf	?___fldiv+1,w
  1376  04D5  00BF               	movwf	___flmul@a+1
  1377  04D6  0820               	movf	?___fldiv,w
  1378  04D7  00BE               	movwf	___flmul@a
  1379  04D8  120A  158A  249F  120A  118A  	fcall	___flmul
  1380  04DD  1283               	bcf	3,5	;RP0=0, select bank0
  1381  04DE  1303               	bcf	3,6	;RP1=0, select bank0
  1382  04DF  083D               	movf	?___flmul+3,w
  1383  04E0  00D7               	movwf	___flsub@a+3
  1384  04E1  083C               	movf	?___flmul+2,w
  1385  04E2  00D6               	movwf	___flsub@a+2
  1386  04E3  083B               	movf	?___flmul+1,w
  1387  04E4  00D5               	movwf	___flsub@a+1
  1388  04E5  083A               	movf	?___flmul,w
  1389  04E6  00D4               	movwf	___flsub@a
  1390  04E7  3042               	movlw	66
  1391  04E8  00DB               	movwf	___flsub@b+3
  1392  04E9  3048               	movlw	72
  1393  04EA  00DA               	movwf	___flsub@b+2
  1394  04EB  3000               	movlw	0
  1395  04EC  00D9               	movwf	___flsub@b+1
  1396  04ED  3000               	movlw	0
  1397  04EE  00D8               	movwf	___flsub@b
  1398  04EF  120A  158A  214D  120A  118A  	fcall	___flsub
  1399  04F4  1283               	bcf	3,5	;RP0=0, select bank0
  1400  04F5  1303               	bcf	3,6	;RP1=0, select bank0
  1401  04F6  0857               	movf	?___flsub+3,w
  1402  04F7  1683               	bsf	3,5	;RP0=1, select bank3
  1403  04F8  1703               	bsf	3,6	;RP1=1, select bank3
  1404  04F9  00E3               	movwf	(write_led@sp+3)^(0+384)
  1405  04FA  1283               	bcf	3,5	;RP0=0, select bank0
  1406  04FB  1303               	bcf	3,6	;RP1=0, select bank0
  1407  04FC  0856               	movf	?___flsub+2,w
  1408  04FD  1683               	bsf	3,5	;RP0=1, select bank3
  1409  04FE  1703               	bsf	3,6	;RP1=1, select bank3
  1410  04FF  00E2               	movwf	(write_led@sp+2)^(0+384)
  1411  0500  1283               	bcf	3,5	;RP0=0, select bank0
  1412  0501  1303               	bcf	3,6	;RP1=0, select bank0
  1413  0502  0855               	movf	?___flsub+1,w
  1414  0503  1683               	bsf	3,5	;RP0=1, select bank3
  1415  0504  1703               	bsf	3,6	;RP1=1, select bank3
  1416  0505  00E1               	movwf	(write_led@sp+1)^(0+384)
  1417  0506  1283               	bcf	3,5	;RP0=0, select bank0
  1418  0507  1303               	bcf	3,6	;RP1=0, select bank0
  1419  0508  0854               	movf	?___flsub,w
  1420  0509  1683               	bsf	3,5	;RP0=1, select bank3
  1421  050A  1703               	bsf	3,6	;RP1=1, select bank3
  1422  050B  00E0               	movwf	write_led@sp^(0+384)
  1423  050C                     l2034:	
  1424                           
  1425                           ;mainLMv4.c: 48:     unsigned char t ;;mainLMv4.c: 49:     unsigned char* FR ;;mainLMv4.
      +                          c: 50:     unsigned char* SR=spc ;
  1426  050C  30D8               	movlw	(low (write_led@spc| (0+256)))& (0+255)
  1427  050D  00E6               	movwf	write_led@SR^(0+384)
  1428  050E  3001               	movlw	1
  1429  050F  00E7               	movwf	(write_led@SR+1)^(0+384)
  1430  0510                     l2036:	
  1431                           
  1432                           ;mainLMv4.c: 54:     for (unsigned char w=0 ; w<strlen(wrds); w++)
  1433  0510  01EA               	clrf	write_led@w^(0+384)
  1434  0511  2FBD               	goto	l2142
  1435  0512                     l2038:	
  1436                           
  1437                           ;mainLMv4.c: 55:     {;mainLMv4.c: 56:       FR =SR;
  1438  0512  1683               	bsf	3,5	;RP0=1, select bank3
  1439  0513  1703               	bsf	3,6	;RP1=1, select bank3
  1440  0514  0866               	movf	write_led@SR^(0+384),w
  1441  0515  1283               	bcf	3,5	;RP0=0, select bank0
  1442  0516  1303               	bcf	3,6	;RP1=0, select bank0
  1443  0517  00ED               	movwf	write_led@FR
  1444  0518  1683               	bsf	3,5	;RP0=1, select bank3
  1445  0519  1703               	bsf	3,6	;RP1=1, select bank3
  1446  051A  0867               	movf	(write_led@SR+1)^(0+384),w
  1447  051B  1283               	bcf	3,5	;RP0=0, select bank0
  1448  051C  1303               	bcf	3,6	;RP1=0, select bank0
  1449  051D  00EE               	movwf	write_led@FR+1
  1450  051E                     l2040:	
  1451                           
  1452                           ;mainLMv4.c: 58:       if (wrds[w]=='H') SR = HR;
  1453  051E  1683               	bsf	3,5	;RP0=1, select bank3
  1454  051F  1703               	bsf	3,6	;RP1=1, select bank3
  1455  0520  086A               	movf	write_led@w^(0+384),w
  1456  0521  1283               	bcf	3,5	;RP0=0, select bank0
  1457  0522  1303               	bcf	3,6	;RP1=0, select bank0
  1458  0523  075C               	addwf	write_led@wrds,w
  1459  0524  0084               	movwf	4
  1460  0525  120A  158A  2000  120A  118A  	fcall	stringdir
  1461  052A  3A48               	xorlw	72
  1462  052B  1D03               	skipz
  1463  052C  2D2E               	goto	u3311
  1464  052D  2D2F               	goto	u3310
  1465  052E                     u3311:	
  1466  052E  2D36               	goto	l2044
  1467  052F                     u3310:	
  1468  052F                     l2042:	
  1469  052F  30C8               	movlw	(low (write_led@HR| 0))& (0+255)
  1470  0530  1683               	bsf	3,5	;RP0=1, select bank3
  1471  0531  1703               	bsf	3,6	;RP1=1, select bank3
  1472  0532  00E6               	movwf	write_led@SR^(0+384)
  1473  0533  3000               	movlw	0
  1474  0534  00E7               	movwf	(write_led@SR+1)^(0+384)
  1475  0535  2E6E               	goto	l2096
  1476  0536                     l2044:	
  1477  0536  1683               	bsf	3,5	;RP0=1, select bank3
  1478  0537  1703               	bsf	3,6	;RP1=1, select bank3
  1479  0538  086A               	movf	write_led@w^(0+384),w
  1480  0539  1283               	bcf	3,5	;RP0=0, select bank0
  1481  053A  1303               	bcf	3,6	;RP1=0, select bank0
  1482  053B  075C               	addwf	write_led@wrds,w
  1483  053C  0084               	movwf	4
  1484  053D  120A  158A  2000  120A  118A  	fcall	stringdir
  1485  0542  3A55               	xorlw	85
  1486  0543  1D03               	skipz
  1487  0544  2D46               	goto	u3321
  1488  0545  2D47               	goto	u3320
  1489  0546                     u3321:	
  1490  0546  2D4E               	goto	l2048
  1491  0547                     u3320:	
  1492  0547                     l2046:	
  1493  0547  30A0               	movlw	(low (write_led@UR| 0))& (0+255)
  1494  0548  1683               	bsf	3,5	;RP0=1, select bank3
  1495  0549  1703               	bsf	3,6	;RP1=1, select bank3
  1496  054A  00E6               	movwf	write_led@SR^(0+384)
  1497  054B  3000               	movlw	0
  1498  054C  00E7               	movwf	(write_led@SR+1)^(0+384)
  1499  054D  2E6E               	goto	l2096
  1500  054E                     l2048:	
  1501  054E  1683               	bsf	3,5	;RP0=1, select bank3
  1502  054F  1703               	bsf	3,6	;RP1=1, select bank3
  1503  0550  086A               	movf	write_led@w^(0+384),w
  1504  0551  1283               	bcf	3,5	;RP0=0, select bank0
  1505  0552  1303               	bcf	3,6	;RP1=0, select bank0
  1506  0553  075C               	addwf	write_led@wrds,w
  1507  0554  0084               	movwf	4
  1508  0555  120A  158A  2000  120A  118A  	fcall	stringdir
  1509  055A  3A4B               	xorlw	75
  1510  055B  1D03               	skipz
  1511  055C  2D5E               	goto	u3331
  1512  055D  2D5F               	goto	u3330
  1513  055E                     u3331:	
  1514  055E  2D66               	goto	l2052
  1515  055F                     u3330:	
  1516  055F                     l2050:	
  1517  055F  30D0               	movlw	(low (write_led@KR| 0))& (0+255)
  1518  0560  1683               	bsf	3,5	;RP0=1, select bank3
  1519  0561  1703               	bsf	3,6	;RP1=1, select bank3
  1520  0562  00E6               	movwf	write_led@SR^(0+384)
  1521  0563  3000               	movlw	0
  1522  0564  00E7               	movwf	(write_led@SR+1)^(0+384)
  1523  0565  2E6E               	goto	l2096
  1524  0566                     l2052:	
  1525  0566  1683               	bsf	3,5	;RP0=1, select bank3
  1526  0567  1703               	bsf	3,6	;RP1=1, select bank3
  1527  0568  086A               	movf	write_led@w^(0+384),w
  1528  0569  1283               	bcf	3,5	;RP0=0, select bank0
  1529  056A  1303               	bcf	3,6	;RP1=0, select bank0
  1530  056B  075C               	addwf	write_led@wrds,w
  1531  056C  0084               	movwf	4
  1532  056D  120A  158A  2000  120A  118A  	fcall	stringdir
  1533  0572  3A41               	xorlw	65
  1534  0573  1D03               	skipz
  1535  0574  2D76               	goto	u3341
  1536  0575  2D77               	goto	u3340
  1537  0576                     u3341:	
  1538  0576  2D7E               	goto	l2056
  1539  0577                     u3340:	
  1540  0577                     l2054:	
  1541  0577  30B0               	movlw	(low (write_led@AR| 0))& (0+255)
  1542  0578  1683               	bsf	3,5	;RP0=1, select bank3
  1543  0579  1703               	bsf	3,6	;RP1=1, select bank3
  1544  057A  00E6               	movwf	write_led@SR^(0+384)
  1545  057B  3000               	movlw	0
  1546  057C  00E7               	movwf	(write_led@SR+1)^(0+384)
  1547  057D  2E6E               	goto	l2096
  1548  057E                     l2056:	
  1549  057E  1683               	bsf	3,5	;RP0=1, select bank3
  1550  057F  1703               	bsf	3,6	;RP1=1, select bank3
  1551  0580  086A               	movf	write_led@w^(0+384),w
  1552  0581  1283               	bcf	3,5	;RP0=0, select bank0
  1553  0582  1303               	bcf	3,6	;RP1=0, select bank0
  1554  0583  075C               	addwf	write_led@wrds,w
  1555  0584  0084               	movwf	4
  1556  0585  120A  158A  2000  120A  118A  	fcall	stringdir
  1557  058A  3A4F               	xorlw	79
  1558  058B  1D03               	skipz
  1559  058C  2D8E               	goto	u3351
  1560  058D  2D8F               	goto	u3350
  1561  058E                     u3351:	
  1562  058E  2D96               	goto	l2060
  1563  058F                     u3350:	
  1564  058F                     l2058:	
  1565  058F  30C0               	movlw	(low (write_led@OR| 0))& (0+255)
  1566  0590  1683               	bsf	3,5	;RP0=1, select bank3
  1567  0591  1703               	bsf	3,6	;RP1=1, select bank3
  1568  0592  00E6               	movwf	write_led@SR^(0+384)
  1569  0593  3000               	movlw	0
  1570  0594  00E7               	movwf	(write_led@SR+1)^(0+384)
  1571  0595  2E6E               	goto	l2096
  1572  0596                     l2060:	
  1573  0596  1683               	bsf	3,5	;RP0=1, select bank3
  1574  0597  1703               	bsf	3,6	;RP1=1, select bank3
  1575  0598  086A               	movf	write_led@w^(0+384),w
  1576  0599  1283               	bcf	3,5	;RP0=0, select bank0
  1577  059A  1303               	bcf	3,6	;RP1=0, select bank0
  1578  059B  075C               	addwf	write_led@wrds,w
  1579  059C  0084               	movwf	4
  1580  059D  120A  158A  2000  120A  118A  	fcall	stringdir
  1581  05A2  3A45               	xorlw	69
  1582  05A3  1D03               	skipz
  1583  05A4  2DA6               	goto	u3361
  1584  05A5  2DA7               	goto	u3360
  1585  05A6                     u3361:	
  1586  05A6  2DAE               	goto	l2064
  1587  05A7                     u3360:	
  1588  05A7                     l2062:	
  1589  05A7  30D8               	movlw	(low (write_led@ER| 0))& (0+255)
  1590  05A8  1683               	bsf	3,5	;RP0=1, select bank3
  1591  05A9  1703               	bsf	3,6	;RP1=1, select bank3
  1592  05AA  00E6               	movwf	write_led@SR^(0+384)
  1593  05AB  3000               	movlw	0
  1594  05AC  00E7               	movwf	(write_led@SR+1)^(0+384)
  1595  05AD  2E6E               	goto	l2096
  1596  05AE                     l2064:	
  1597  05AE  1683               	bsf	3,5	;RP0=1, select bank3
  1598  05AF  1703               	bsf	3,6	;RP1=1, select bank3
  1599  05B0  086A               	movf	write_led@w^(0+384),w
  1600  05B1  1283               	bcf	3,5	;RP0=0, select bank0
  1601  05B2  1303               	bcf	3,6	;RP1=0, select bank0
  1602  05B3  075C               	addwf	write_led@wrds,w
  1603  05B4  0084               	movwf	4
  1604  05B5  120A  158A  2000  120A  118A  	fcall	stringdir
  1605  05BA  3A4D               	xorlw	77
  1606  05BB  1D03               	skipz
  1607  05BC  2DBE               	goto	u3371
  1608  05BD  2DBF               	goto	u3370
  1609  05BE                     u3371:	
  1610  05BE  2DC6               	goto	l2068
  1611  05BF                     u3370:	
  1612  05BF                     l2066:	
  1613  05BF  30B8               	movlw	(low (write_led@MR| 0))& (0+255)
  1614  05C0  1683               	bsf	3,5	;RP0=1, select bank3
  1615  05C1  1703               	bsf	3,6	;RP1=1, select bank3
  1616  05C2  00E6               	movwf	write_led@SR^(0+384)
  1617  05C3  3000               	movlw	0
  1618  05C4  00E7               	movwf	(write_led@SR+1)^(0+384)
  1619  05C5  2E6E               	goto	l2096
  1620  05C6                     l2068:	
  1621  05C6  1683               	bsf	3,5	;RP0=1, select bank3
  1622  05C7  1703               	bsf	3,6	;RP1=1, select bank3
  1623  05C8  086A               	movf	write_led@w^(0+384),w
  1624  05C9  1283               	bcf	3,5	;RP0=0, select bank0
  1625  05CA  1303               	bcf	3,6	;RP1=0, select bank0
  1626  05CB  075C               	addwf	write_led@wrds,w
  1627  05CC  0084               	movwf	4
  1628  05CD  120A  158A  2000  120A  118A  	fcall	stringdir
  1629  05D2  3A44               	xorlw	68
  1630  05D3  1D03               	skipz
  1631  05D4  2DD6               	goto	u3381
  1632  05D5  2DD7               	goto	u3380
  1633  05D6                     u3381:	
  1634  05D6  2DDE               	goto	l2072
  1635  05D7                     u3380:	
  1636  05D7                     l2070:	
  1637  05D7  30E0               	movlw	(low (write_led@DR| 0))& (0+255)
  1638  05D8  1683               	bsf	3,5	;RP0=1, select bank3
  1639  05D9  1703               	bsf	3,6	;RP1=1, select bank3
  1640  05DA  00E6               	movwf	write_led@SR^(0+384)
  1641  05DB  3000               	movlw	0
  1642  05DC  00E7               	movwf	(write_led@SR+1)^(0+384)
  1643  05DD  2E6E               	goto	l2096
  1644  05DE                     l2072:	
  1645  05DE  1683               	bsf	3,5	;RP0=1, select bank3
  1646  05DF  1703               	bsf	3,6	;RP1=1, select bank3
  1647  05E0  086A               	movf	write_led@w^(0+384),w
  1648  05E1  1283               	bcf	3,5	;RP0=0, select bank0
  1649  05E2  1303               	bcf	3,6	;RP1=0, select bank0
  1650  05E3  075C               	addwf	write_led@wrds,w
  1651  05E4  0084               	movwf	4
  1652  05E5  120A  158A  2000  120A  118A  	fcall	stringdir
  1653  05EA  3A53               	xorlw	83
  1654  05EB  1D03               	skipz
  1655  05EC  2DEE               	goto	u3391
  1656  05ED  2DEF               	goto	u3390
  1657  05EE                     u3391:	
  1658  05EE  2DF6               	goto	l2076
  1659  05EF                     u3390:	
  1660  05EF                     l2074:	
  1661  05EF  30C0               	movlw	(low (write_led@SRr| (0+256)))& (0+255)
  1662  05F0  1683               	bsf	3,5	;RP0=1, select bank3
  1663  05F1  1703               	bsf	3,6	;RP1=1, select bank3
  1664  05F2  00E6               	movwf	write_led@SR^(0+384)
  1665  05F3  3001               	movlw	1
  1666  05F4  00E7               	movwf	(write_led@SR+1)^(0+384)
  1667  05F5  2E6E               	goto	l2096
  1668  05F6                     l2076:	
  1669  05F6  1683               	bsf	3,5	;RP0=1, select bank3
  1670  05F7  1703               	bsf	3,6	;RP1=1, select bank3
  1671  05F8  086A               	movf	write_led@w^(0+384),w
  1672  05F9  1283               	bcf	3,5	;RP0=0, select bank0
  1673  05FA  1303               	bcf	3,6	;RP1=0, select bank0
  1674  05FB  075C               	addwf	write_led@wrds,w
  1675  05FC  0084               	movwf	4
  1676  05FD  120A  158A  2000  120A  118A  	fcall	stringdir
  1677  0602  3A52               	xorlw	82
  1678  0603  1D03               	skipz
  1679  0604  2E06               	goto	u3401
  1680  0605  2E07               	goto	u3400
  1681  0606                     u3401:	
  1682  0606  2E0E               	goto	l2080
  1683  0607                     u3400:	
  1684  0607                     l2078:	
  1685  0607  30E8               	movlw	(low (write_led@RR| 0))& (0+255)
  1686  0608  1683               	bsf	3,5	;RP0=1, select bank3
  1687  0609  1703               	bsf	3,6	;RP1=1, select bank3
  1688  060A  00E6               	movwf	write_led@SR^(0+384)
  1689  060B  3000               	movlw	0
  1690  060C  00E7               	movwf	(write_led@SR+1)^(0+384)
  1691  060D  2E6E               	goto	l2096
  1692  060E                     l2080:	
  1693  060E  1683               	bsf	3,5	;RP0=1, select bank3
  1694  060F  1703               	bsf	3,6	;RP1=1, select bank3
  1695  0610  086A               	movf	write_led@w^(0+384),w
  1696  0611  1283               	bcf	3,5	;RP0=0, select bank0
  1697  0612  1303               	bcf	3,6	;RP1=0, select bank0
  1698  0613  075C               	addwf	write_led@wrds,w
  1699  0614  0084               	movwf	4
  1700  0615  120A  158A  2000  120A  118A  	fcall	stringdir
  1701  061A  3A49               	xorlw	73
  1702  061B  1D03               	skipz
  1703  061C  2E1E               	goto	u3411
  1704  061D  2E1F               	goto	u3410
  1705  061E                     u3411:	
  1706  061E  2E26               	goto	l2084
  1707  061F                     u3410:	
  1708  061F                     l2082:	
  1709  061F  30A8               	movlw	(low (write_led@IR| 0))& (0+255)
  1710  0620  1683               	bsf	3,5	;RP0=1, select bank3
  1711  0621  1703               	bsf	3,6	;RP1=1, select bank3
  1712  0622  00E6               	movwf	write_led@SR^(0+384)
  1713  0623  3000               	movlw	0
  1714  0624  00E7               	movwf	(write_led@SR+1)^(0+384)
  1715  0625  2E6E               	goto	l2096
  1716  0626                     l2084:	
  1717  0626  1683               	bsf	3,5	;RP0=1, select bank3
  1718  0627  1703               	bsf	3,6	;RP1=1, select bank3
  1719  0628  086A               	movf	write_led@w^(0+384),w
  1720  0629  1283               	bcf	3,5	;RP0=0, select bank0
  1721  062A  1303               	bcf	3,6	;RP1=0, select bank0
  1722  062B  075C               	addwf	write_led@wrds,w
  1723  062C  0084               	movwf	4
  1724  062D  120A  158A  2000  120A  118A  	fcall	stringdir
  1725  0632  3A20               	xorlw	32
  1726  0633  1D03               	skipz
  1727  0634  2E36               	goto	u3421
  1728  0635  2E37               	goto	u3420
  1729  0636                     u3421:	
  1730  0636  2E3E               	goto	l2088
  1731  0637                     u3420:	
  1732  0637                     l2086:	
  1733  0637  30D8               	movlw	(low (write_led@spc| (0+256)))& (0+255)
  1734  0638  1683               	bsf	3,5	;RP0=1, select bank3
  1735  0639  1703               	bsf	3,6	;RP1=1, select bank3
  1736  063A  00E6               	movwf	write_led@SR^(0+384)
  1737  063B  3001               	movlw	1
  1738  063C  00E7               	movwf	(write_led@SR+1)^(0+384)
  1739  063D  2E6E               	goto	l2096
  1740  063E                     l2088:	
  1741  063E  1683               	bsf	3,5	;RP0=1, select bank3
  1742  063F  1703               	bsf	3,6	;RP1=1, select bank3
  1743  0640  086A               	movf	write_led@w^(0+384),w
  1744  0641  1283               	bcf	3,5	;RP0=0, select bank0
  1745  0642  1303               	bcf	3,6	;RP1=0, select bank0
  1746  0643  075C               	addwf	write_led@wrds,w
  1747  0644  0084               	movwf	4
  1748  0645  120A  158A  2000  120A  118A  	fcall	stringdir
  1749  064A  3A2A               	xorlw	42
  1750  064B  1D03               	skipz
  1751  064C  2E4E               	goto	u3431
  1752  064D  2E4F               	goto	u3430
  1753  064E                     u3431:	
  1754  064E  2E56               	goto	l2092
  1755  064F                     u3430:	
  1756  064F                     l2090:	
  1757  064F  30C8               	movlw	(low (write_led@_H| (0+256)))& (0+255)
  1758  0650  1683               	bsf	3,5	;RP0=1, select bank3
  1759  0651  1703               	bsf	3,6	;RP1=1, select bank3
  1760  0652  00E6               	movwf	write_led@SR^(0+384)
  1761  0653  3001               	movlw	1
  1762  0654  00E7               	movwf	(write_led@SR+1)^(0+384)
  1763  0655  2E6E               	goto	l2096
  1764  0656                     l2092:	
  1765  0656  1683               	bsf	3,5	;RP0=1, select bank3
  1766  0657  1703               	bsf	3,6	;RP1=1, select bank3
  1767  0658  086A               	movf	write_led@w^(0+384),w
  1768  0659  1283               	bcf	3,5	;RP0=0, select bank0
  1769  065A  1303               	bcf	3,6	;RP1=0, select bank0
  1770  065B  075C               	addwf	write_led@wrds,w
  1771  065C  0084               	movwf	4
  1772  065D  120A  158A  2000  120A  118A  	fcall	stringdir
  1773  0662  3A40               	xorlw	64
  1774  0663  1D03               	skipz
  1775  0664  2E66               	goto	u3441
  1776  0665  2E67               	goto	u3440
  1777  0666                     u3441:	
  1778  0666  2E6E               	goto	l78
  1779  0667                     u3440:	
  1780  0667                     l2094:	
  1781  0667  30D0               	movlw	(low (write_led@_SM| (0+256)))& (0+255)
  1782  0668  1683               	bsf	3,5	;RP0=1, select bank3
  1783  0669  1703               	bsf	3,6	;RP1=1, select bank3
  1784  066A  00E6               	movwf	write_led@SR^(0+384)
  1785  066B  3001               	movlw	1
  1786  066C  00E7               	movwf	(write_led@SR+1)^(0+384)
  1787  066D  2E6E               	goto	l2096
  1788  066E                     l78:	
  1789  066E                     l2096:	
  1790                           
  1791                           ;mainLMv4.c: 74:       for ( unsigned char j=0;j<9;j++)
  1792  066E  1683               	bsf	3,5	;RP0=1, select bank3
  1793  066F  1703               	bsf	3,6	;RP1=1, select bank3
  1794  0670  01E8               	clrf	write_led@j^(0+384)
  1795  0671                     l2102:	
  1796                           
  1797                           ;mainLMv4.c: 77:            t=t+1;
  1798  0671  1683               	bsf	3,5	;RP0=1, select bank3
  1799  0672  1703               	bsf	3,6	;RP1=1, select bank3
  1800  0673  0865               	movf	write_led@t^(0+384),w
  1801  0674  3E01               	addlw	1
  1802  0675  1283               	bcf	3,5	;RP0=0, select bank0
  1803  0676  1303               	bcf	3,6	;RP1=0, select bank0
  1804  0677  00DD               	movwf	??_write_led
  1805  0678  085D               	movf	??_write_led,w
  1806  0679  1683               	bsf	3,5	;RP0=1, select bank3
  1807  067A  1703               	bsf	3,6	;RP1=1, select bank3
  1808  067B  00E5               	movwf	write_led@t^(0+384)
  1809  067C                     l2104:	
  1810                           
  1811                           ;mainLMv4.c: 78:            for (unsigned char i=0;i<8;i++)
  1812  067C  01E9               	clrf	write_led@i^(0+384)
  1813  067D                     l2110:	
  1814                           
  1815                           ;mainLMv4.c: 79:             {;mainLMv4.c: 80:              PORTB = ~(cc>>i);
  1816  067D  0864               	movf	write_led@cc^(0+384),w
  1817  067E  1283               	bcf	3,5	;RP0=0, select bank0
  1818  067F  1303               	bcf	3,6	;RP1=0, select bank0
  1819  0680  00DD               	movwf	??_write_led
  1820  0681  1683               	bsf	3,5	;RP0=1, select bank3
  1821  0682  1703               	bsf	3,6	;RP1=1, select bank3
  1822  0683  0A69               	incf	write_led@i^(0+384),w
  1823  0684  1283               	bcf	3,5	;RP0=0, select bank0
  1824  0685  1303               	bcf	3,6	;RP1=0, select bank0
  1825  0686  2E89               	goto	u3454
  1826  0687                     u3455:	
  1827  0687  1003               	clrc
  1828  0688  0CDD               	rrf	??_write_led,f
  1829  0689                     u3454:	
  1830  0689  3EFF               	addlw	-1
  1831  068A  1D03               	skipz
  1832  068B  2E87               	goto	u3455
  1833  068C  085D               	movf	??_write_led,w
  1834  068D  3AFF               	xorlw	255
  1835  068E  0086               	movwf	6	;volatile
  1836  068F                     l2112:	
  1837                           
  1838                           ;mainLMv4.c: 81:              if (i+j<8){PORTD = FR[i+j];}
  1839  068F  1683               	bsf	3,5	;RP0=1, select bank3
  1840  0690  1703               	bsf	3,6	;RP1=1, select bank3
  1841  0691  0869               	movf	write_led@i^(0+384),w
  1842  0692  0768               	addwf	write_led@j^(0+384),w
  1843  0693  1283               	bcf	3,5	;RP0=0, select bank0
  1844  0694  1303               	bcf	3,6	;RP1=0, select bank0
  1845  0695  00DD               	movwf	??_write_led
  1846  0696  01DE               	clrf	??_write_led+1
  1847  0697  0DDE               	rlf	??_write_led+1,f
  1848  0698  085E               	movf	??_write_led+1,w
  1849  0699  3A80               	xorlw	128
  1850  069A  00FF               	movwf	btemp+1
  1851  069B  3080               	movlw	128
  1852  069C  027F               	subwf	btemp+1,w
  1853  069D  1D03               	skipz
  1854  069E  2EA1               	goto	u3465
  1855  069F  3008               	movlw	8
  1856  06A0  025D               	subwf	??_write_led,w
  1857  06A1                     u3465:	
  1858  06A1  1803               	skipnc
  1859  06A2  2EA4               	goto	u3461
  1860  06A3  2EA5               	goto	u3460
  1861  06A4                     u3461:	
  1862  06A4  2ED9               	goto	l2116
  1863  06A5                     u3460:	
  1864  06A5                     l2114:	
  1865  06A5  1683               	bsf	3,5	;RP0=1, select bank3
  1866  06A6  1703               	bsf	3,6	;RP1=1, select bank3
  1867  06A7  0868               	movf	write_led@j^(0+384),w
  1868  06A8  1283               	bcf	3,5	;RP0=0, select bank0
  1869  06A9  1303               	bcf	3,6	;RP1=0, select bank0
  1870  06AA  076D               	addwf	write_led@FR,w
  1871  06AB  00DE               	movwf	??_write_led+1
  1872  06AC  086E               	movf	write_led@FR+1,w
  1873  06AD  00DD               	movwf	??_write_led
  1874  06AE  1803               	skipnc
  1875  06AF  0ADD               	incf	??_write_led,f
  1876  06B0  1683               	bsf	3,5	;RP0=1, select bank3
  1877  06B1  1703               	bsf	3,6	;RP1=1, select bank3
  1878  06B2  1FE8               	btfss	write_led@j^(0+384),7
  1879  06B3  2EB7               	goto	u3470
  1880  06B4  1283               	bcf	3,5	;RP0=0, select bank0
  1881  06B5  1303               	bcf	3,6	;RP1=0, select bank0
  1882  06B6  03DD               	decf	??_write_led,f
  1883  06B7                     u3470:	
  1884  06B7  1283               	bcf	3,5	;RP0=0, select bank0
  1885  06B8  1303               	bcf	3,6	;RP1=0, select bank0
  1886  06B9  085D               	movf	??_write_led,w
  1887  06BA  00DF               	movwf	??_write_led+2
  1888  06BB  1683               	bsf	3,5	;RP0=1, select bank3
  1889  06BC  1703               	bsf	3,6	;RP1=1, select bank3
  1890  06BD  0869               	movf	write_led@i^(0+384),w
  1891  06BE  1283               	bcf	3,5	;RP0=0, select bank0
  1892  06BF  1303               	bcf	3,6	;RP1=0, select bank0
  1893  06C0  075E               	addwf	??_write_led+1,w
  1894  06C1  00E1               	movwf	??_write_led+4
  1895  06C2  085F               	movf	??_write_led+2,w
  1896  06C3  00E0               	movwf	??_write_led+3
  1897  06C4  1803               	skipnc
  1898  06C5  0AE0               	incf	??_write_led+3,f
  1899  06C6  1683               	bsf	3,5	;RP0=1, select bank3
  1900  06C7  1703               	bsf	3,6	;RP1=1, select bank3
  1901  06C8  1FE9               	btfss	write_led@i^(0+384),7
  1902  06C9  2ECD               	goto	u3480
  1903  06CA  1283               	bcf	3,5	;RP0=0, select bank0
  1904  06CB  1303               	bcf	3,6	;RP1=0, select bank0
  1905  06CC  03E0               	decf	??_write_led+3,f
  1906  06CD                     u3480:	
  1907  06CD  1283               	bcf	3,5	;RP0=0, select bank0
  1908  06CE  1303               	bcf	3,6	;RP1=0, select bank0
  1909  06CF  0860               	movf	??_write_led+3,w
  1910  06D0  00E2               	movwf	??_write_led+5
  1911  06D1  0861               	movf	??_write_led+4,w
  1912  06D2  0084               	movwf	4
  1913  06D3  1783               	bsf	3,7
  1914  06D4  1C62               	btfss	??_write_led+5,0
  1915  06D5  1383               	bcf	3,7
  1916  06D6  0800               	movf	0,w
  1917  06D7  0088               	movwf	8	;volatile
  1918  06D8  2F40               	goto	l2124
  1919  06D9                     l2116:	
  1920  06D9  1683               	bsf	3,5	;RP0=1, select bank3
  1921  06DA  1703               	bsf	3,6	;RP1=1, select bank3
  1922  06DB  0869               	movf	write_led@i^(0+384),w
  1923  06DC  0768               	addwf	write_led@j^(0+384),w
  1924  06DD  1283               	bcf	3,5	;RP0=0, select bank0
  1925  06DE  1303               	bcf	3,6	;RP1=0, select bank0
  1926  06DF  00DD               	movwf	??_write_led
  1927  06E0  01DE               	clrf	??_write_led+1
  1928  06E1  0DDE               	rlf	??_write_led+1,f
  1929  06E2  3008               	movlw	8
  1930  06E3  065D               	xorwf	??_write_led,w
  1931  06E4  045E               	iorwf	??_write_led+1,w
  1932  06E5  1D03               	btfss	3,2
  1933  06E6  2EE8               	goto	u3491
  1934  06E7  2EE9               	goto	u3490
  1935  06E8                     u3491:	
  1936  06E8  2EEB               	goto	l2120
  1937  06E9                     u3490:	
  1938  06E9                     l2118:	
  1939  06E9  0188               	clrf	8	;volatile
  1940  06EA  2F40               	goto	l2124
  1941  06EB                     l2120:	
  1942  06EB  1683               	bsf	3,5	;RP0=1, select bank3
  1943  06EC  1703               	bsf	3,6	;RP1=1, select bank3
  1944  06ED  0869               	movf	write_led@i^(0+384),w
  1945  06EE  0768               	addwf	write_led@j^(0+384),w
  1946  06EF  1283               	bcf	3,5	;RP0=0, select bank0
  1947  06F0  1303               	bcf	3,6	;RP1=0, select bank0
  1948  06F1  00DD               	movwf	??_write_led
  1949  06F2  01DE               	clrf	??_write_led+1
  1950  06F3  0DDE               	rlf	??_write_led+1,f
  1951  06F4  085E               	movf	??_write_led+1,w
  1952  06F5  3A80               	xorlw	128
  1953  06F6  00FF               	movwf	btemp+1
  1954  06F7  3080               	movlw	128
  1955  06F8  027F               	subwf	btemp+1,w
  1956  06F9  1D03               	skipz
  1957  06FA  2EFD               	goto	u3505
  1958  06FB  3009               	movlw	9
  1959  06FC  025D               	subwf	??_write_led,w
  1960  06FD                     u3505:	
  1961  06FD  1C03               	skipc
  1962  06FE  2F00               	goto	u3501
  1963  06FF  2F01               	goto	u3500
  1964  0700                     u3501:	
  1965  0700  2F40               	goto	l2124
  1966  0701                     u3500:	
  1967  0701                     l2122:	
  1968  0701  1683               	bsf	3,5	;RP0=1, select bank3
  1969  0702  1703               	bsf	3,6	;RP1=1, select bank3
  1970  0703  0868               	movf	write_led@j^(0+384),w
  1971  0704  0766               	addwf	write_led@SR^(0+384),w
  1972  0705  1283               	bcf	3,5	;RP0=0, select bank0
  1973  0706  1303               	bcf	3,6	;RP1=0, select bank0
  1974  0707  00DE               	movwf	??_write_led+1
  1975  0708  1683               	bsf	3,5	;RP0=1, select bank3
  1976  0709  1703               	bsf	3,6	;RP1=1, select bank3
  1977  070A  0867               	movf	(write_led@SR+1)^(0+384),w
  1978  070B  1283               	bcf	3,5	;RP0=0, select bank0
  1979  070C  1303               	bcf	3,6	;RP1=0, select bank0
  1980  070D  00DD               	movwf	??_write_led
  1981  070E  1803               	skipnc
  1982  070F  0ADD               	incf	??_write_led,f
  1983  0710  1683               	bsf	3,5	;RP0=1, select bank3
  1984  0711  1703               	bsf	3,6	;RP1=1, select bank3
  1985  0712  1FE8               	btfss	write_led@j^(0+384),7
  1986  0713  2F17               	goto	u3510
  1987  0714  1283               	bcf	3,5	;RP0=0, select bank0
  1988  0715  1303               	bcf	3,6	;RP1=0, select bank0
  1989  0716  03DD               	decf	??_write_led,f
  1990  0717                     u3510:	
  1991  0717  1283               	bcf	3,5	;RP0=0, select bank0
  1992  0718  1303               	bcf	3,6	;RP1=0, select bank0
  1993  0719  085D               	movf	??_write_led,w
  1994  071A  00DF               	movwf	??_write_led+2
  1995  071B  1683               	bsf	3,5	;RP0=1, select bank3
  1996  071C  1703               	bsf	3,6	;RP1=1, select bank3
  1997  071D  0869               	movf	write_led@i^(0+384),w
  1998  071E  1283               	bcf	3,5	;RP0=0, select bank0
  1999  071F  1303               	bcf	3,6	;RP1=0, select bank0
  2000  0720  075E               	addwf	??_write_led+1,w
  2001  0721  00E1               	movwf	??_write_led+4
  2002  0722  085F               	movf	??_write_led+2,w
  2003  0723  00E0               	movwf	??_write_led+3
  2004  0724  1803               	skipnc
  2005  0725  0AE0               	incf	??_write_led+3,f
  2006  0726  1683               	bsf	3,5	;RP0=1, select bank3
  2007  0727  1703               	bsf	3,6	;RP1=1, select bank3
  2008  0728  1FE9               	btfss	write_led@i^(0+384),7
  2009  0729  2F2D               	goto	u3520
  2010  072A  1283               	bcf	3,5	;RP0=0, select bank0
  2011  072B  1303               	bcf	3,6	;RP1=0, select bank0
  2012  072C  03E0               	decf	??_write_led+3,f
  2013  072D                     u3520:	
  2014  072D  1283               	bcf	3,5	;RP0=0, select bank0
  2015  072E  1303               	bcf	3,6	;RP1=0, select bank0
  2016  072F  0860               	movf	??_write_led+3,w
  2017  0730  00E2               	movwf	??_write_led+5
  2018  0731  0861               	movf	??_write_led+4,w
  2019  0732  3EF7               	addlw	247
  2020  0733  00E3               	movwf	??_write_led+6
  2021  0734  0862               	movf	??_write_led+5,w
  2022  0735  1803               	skipnc
  2023  0736  3E01               	addlw	1
  2024  0737  3EFF               	addlw	255
  2025  0738  00E4               	movwf	??_write_led+7
  2026  0739  0863               	movf	??_write_led+6,w
  2027  073A  0084               	movwf	4
  2028  073B  1783               	bsf	3,7
  2029  073C  1C64               	btfss	??_write_led+7,0
  2030  073D  1383               	bcf	3,7
  2031  073E  0800               	movf	0,w
  2032  073F  0088               	movwf	8	;volatile
  2033  0740                     l2124:	
  2034                           
  2035                           ;mainLMv4.c: 84:              _delay((unsigned long)((5)*(4000000/4000.0)));
  2036  0740  3007               	movlw	7
  2037  0741  1283               	bcf	3,5	;RP0=0, select bank0
  2038  0742  1303               	bcf	3,6	;RP1=0, select bank0
  2039  0743  00DE               	movwf	??_write_led+1
  2040  0744  307C               	movlw	124
  2041  0745  00DD               	movwf	??_write_led
  2042  0746                     u3577:	
  2043  0746  0BDD               	decfsz	??_write_led,f
  2044  0747  2F46               	goto	u3577
  2045  0748  0BDE               	decfsz	??_write_led+1,f
  2046  0749  2F46               	goto	u3577
  2047  074A  0000               	nop
  2048  074B                     l2126:	
  2049                           
  2050                           ;mainLMv4.c: 85:             }
  2051  074B  3001               	movlw	1
  2052  074C  1283               	bcf	3,5	;RP0=0, select bank0
  2053  074D  1303               	bcf	3,6	;RP1=0, select bank0
  2054  074E  00DD               	movwf	??_write_led
  2055  074F  085D               	movf	??_write_led,w
  2056  0750  1683               	bsf	3,5	;RP0=1, select bank3
  2057  0751  1703               	bsf	3,6	;RP1=1, select bank3
  2058  0752  07E9               	addwf	write_led@i^(0+384),f
  2059  0753                     l2128:	
  2060  0753  3008               	movlw	8
  2061  0754  0269               	subwf	write_led@i^(0+384),w
  2062  0755  1C03               	skipc
  2063  0756  2F58               	goto	u3531
  2064  0757  2F59               	goto	u3530
  2065  0758                     u3531:	
  2066  0758  2E7D               	goto	l2110
  2067  0759                     u3530:	
  2068  0759                     l2130:	
  2069                           
  2070                           ;mainLMv4.c: 86:         } while (t < sp ) ;
  2071  0759  0865               	movf	write_led@t^(0+384),w
  2072  075A  1283               	bcf	3,5	;RP0=0, select bank0
  2073  075B  1303               	bcf	3,6	;RP1=0, select bank0
  2074  075C  00DD               	movwf	??_write_led
  2075  075D  01DE               	clrf	??_write_led+1
  2076  075E  01DF               	clrf	??_write_led+2
  2077  075F  01E0               	clrf	??_write_led+3
  2078  0760  0860               	movf	??_write_led+3,w
  2079  0761  00F3               	movwf	___xxtofl@val+3
  2080  0762  085F               	movf	??_write_led+2,w
  2081  0763  00F2               	movwf	___xxtofl@val+2
  2082  0764  085E               	movf	??_write_led+1,w
  2083  0765  00F1               	movwf	___xxtofl@val+1
  2084  0766  085D               	movf	??_write_led,w
  2085  0767  00F0               	movwf	___xxtofl@val
  2086  0768  3001               	movlw	1
  2087  0769  120A  158A  2208  120A  118A  	fcall	___xxtofl
  2088  076E  0873               	movf	?___xxtofl+3,w
  2089  076F  1283               	bcf	3,5	;RP0=0, select bank0
  2090  0770  1303               	bcf	3,6	;RP1=0, select bank0
  2091  0771  00A3               	movwf	___flge@ff1+3
  2092  0772  0872               	movf	?___xxtofl+2,w
  2093  0773  00A2               	movwf	___flge@ff1+2
  2094  0774  0871               	movf	?___xxtofl+1,w
  2095  0775  00A1               	movwf	___flge@ff1+1
  2096  0776  0870               	movf	?___xxtofl,w
  2097  0777  00A0               	movwf	___flge@ff1
  2098  0778  1683               	bsf	3,5	;RP0=1, select bank3
  2099  0779  1703               	bsf	3,6	;RP1=1, select bank3
  2100  077A  0863               	movf	(write_led@sp+3)^(0+384),w
  2101  077B  1283               	bcf	3,5	;RP0=0, select bank0
  2102  077C  1303               	bcf	3,6	;RP1=0, select bank0
  2103  077D  00A7               	movwf	___flge@ff2+3
  2104  077E  1683               	bsf	3,5	;RP0=1, select bank3
  2105  077F  1703               	bsf	3,6	;RP1=1, select bank3
  2106  0780  0862               	movf	(write_led@sp+2)^(0+384),w
  2107  0781  1283               	bcf	3,5	;RP0=0, select bank0
  2108  0782  1303               	bcf	3,6	;RP1=0, select bank0
  2109  0783  00A6               	movwf	___flge@ff2+2
  2110  0784  1683               	bsf	3,5	;RP0=1, select bank3
  2111  0785  1703               	bsf	3,6	;RP1=1, select bank3
  2112  0786  0861               	movf	(write_led@sp+1)^(0+384),w
  2113  0787  1283               	bcf	3,5	;RP0=0, select bank0
  2114  0788  1303               	bcf	3,6	;RP1=0, select bank0
  2115  0789  00A5               	movwf	___flge@ff2+1
  2116  078A  1683               	bsf	3,5	;RP0=1, select bank3
  2117  078B  1703               	bsf	3,6	;RP1=1, select bank3
  2118  078C  0860               	movf	write_led@sp^(0+384),w
  2119  078D  1283               	bcf	3,5	;RP0=0, select bank0
  2120  078E  1303               	bcf	3,6	;RP1=0, select bank0
  2121  078F  00A4               	movwf	___flge@ff2
  2122  0790  120A  118A  2016  120A  118A  	fcall	___flge
  2123  0795  1C03               	btfss	3,0
  2124  0796  2F98               	goto	u3541
  2125  0797  2F99               	goto	u3540
  2126  0798                     u3541:	
  2127  0798  2E71               	goto	l2102
  2128  0799                     u3540:	
  2129  0799                     l2132:	
  2130                           
  2131                           ;mainLMv4.c: 87:         t=0;
  2132  0799  1683               	bsf	3,5	;RP0=1, select bank3
  2133  079A  1703               	bsf	3,6	;RP1=1, select bank3
  2134  079B  01E5               	clrf	write_led@t^(0+384)
  2135  079C                     l2134:	
  2136                           
  2137                           ;mainLMv4.c: 88:         _delay((unsigned long)((20)*(4000000/4000.0)));
  2138  079C  301A               	movlw	26
  2139  079D  1283               	bcf	3,5	;RP0=0, select bank0
  2140  079E  1303               	bcf	3,6	;RP1=0, select bank0
  2141  079F  00DE               	movwf	??_write_led+1
  2142  07A0  30F7               	movlw	247
  2143  07A1  00DD               	movwf	??_write_led
  2144  07A2                     u3587:	
  2145  07A2  0BDD               	decfsz	??_write_led,f
  2146  07A3  2FA2               	goto	u3587
  2147  07A4  0BDE               	decfsz	??_write_led+1,f
  2148  07A5  2FA2               	goto	u3587
  2149  07A6  2FA7               	nop2
  2150  07A7                     l2136:	
  2151                           
  2152                           ;mainLMv4.c: 89:       }
  2153  07A7  3001               	movlw	1
  2154  07A8  1283               	bcf	3,5	;RP0=0, select bank0
  2155  07A9  1303               	bcf	3,6	;RP1=0, select bank0
  2156  07AA  00DD               	movwf	??_write_led
  2157  07AB  085D               	movf	??_write_led,w
  2158  07AC  1683               	bsf	3,5	;RP0=1, select bank3
  2159  07AD  1703               	bsf	3,6	;RP1=1, select bank3
  2160  07AE  07E8               	addwf	write_led@j^(0+384),f
  2161  07AF                     l2138:	
  2162  07AF  3009               	movlw	9
  2163  07B0  0268               	subwf	write_led@j^(0+384),w
  2164  07B1  1C03               	skipc
  2165  07B2  2FB4               	goto	u3551
  2166  07B3  2FB5               	goto	u3550
  2167  07B4                     u3551:	
  2168  07B4  2E71               	goto	l2102
  2169  07B5                     u3550:	
  2170  07B5                     l2140:	
  2171                           
  2172                           ;mainLMv4.c: 90:     }
  2173  07B5  3001               	movlw	1
  2174  07B6  1283               	bcf	3,5	;RP0=0, select bank0
  2175  07B7  1303               	bcf	3,6	;RP1=0, select bank0
  2176  07B8  00DD               	movwf	??_write_led
  2177  07B9  085D               	movf	??_write_led,w
  2178  07BA  1683               	bsf	3,5	;RP0=1, select bank3
  2179  07BB  1703               	bsf	3,6	;RP1=1, select bank3
  2180  07BC  07EA               	addwf	write_led@w^(0+384),f
  2181  07BD                     l2142:	
  2182  07BD  1283               	bcf	3,5	;RP0=0, select bank0
  2183  07BE  1303               	bcf	3,6	;RP1=0, select bank0
  2184  07BF  085C               	movf	write_led@wrds,w
  2185  07C0  120A  158A  2130  120A  118A  	fcall	_strlen
  2186  07C5  1683               	bsf	3,5	;RP0=1, select bank3
  2187  07C6  1703               	bsf	3,6	;RP1=1, select bank3
  2188  07C7  086A               	movf	write_led@w^(0+384),w
  2189  07C8  1283               	bcf	3,5	;RP0=0, select bank0
  2190  07C9  1303               	bcf	3,6	;RP1=0, select bank0
  2191  07CA  00DD               	movwf	??_write_led
  2192  07CB  01DE               	clrf	??_write_led+1
  2193  07CC  0871               	movf	?_strlen+1,w
  2194  07CD  025E               	subwf	??_write_led+1,w
  2195  07CE  1D03               	skipz
  2196  07CF  2FD2               	goto	u3565
  2197  07D0  0870               	movf	?_strlen,w
  2198  07D1  025D               	subwf	??_write_led,w
  2199  07D2                     u3565:	
  2200  07D2  1C03               	skipc
  2201  07D3  2FD5               	goto	u3561
  2202  07D4  2FD6               	goto	u3560
  2203  07D5                     u3561:	
  2204  07D5  2D12               	goto	l2038
  2205  07D6                     u3560:	
  2206  07D6                     l96:	
  2207  07D6  0008               	return
  2208  07D7                     __end_of_write_led:	
  2209                           
  2210                           	psect	text2
  2211  0930                     __ptext2:	
  2212 ;; *************** function _strlen *****************
  2213 ;; Defined at:
  2214 ;;		line 4 in file "C:\Program Files (x86)\Microchip\xc8\v2.10\pic\sources\c90\common\strlen.c"
  2215 ;; Parameters:    Size  Location     Type
  2216 ;;  s               1    wreg     PTR const unsigned char 
  2217 ;;		 -> STR_1(15), 
  2218 ;; Auto vars:     Size  Location     Type
  2219 ;;  s               1    3[COMMON] PTR const unsigned char 
  2220 ;;		 -> STR_1(15), 
  2221 ;;  cp              1    4[COMMON] PTR const unsigned char 
  2222 ;;		 -> STR_1(15), 
  2223 ;; Return value:  Size  Location     Type
  2224 ;;                  2    0[COMMON] unsigned int 
  2225 ;; Registers used:
  2226 ;;		wreg, fsr0l, fsr0h, status,2, status,0, pclath
  2227 ;; Tracked objects:
  2228 ;;		On entry : 0/0
  2229 ;;		On exit  : 0/0
  2230 ;;		Unchanged: 0/0
  2231 ;; Data sizes:     COMMON   BANK0   BANK1   BANK3   BANK2
  2232 ;;      Params:         2       0       0       0       0
  2233 ;;      Locals:         2       0       0       0       0
  2234 ;;      Temps:          1       0       0       0       0
  2235 ;;      Totals:         5       0       0       0       0
  2236 ;;Total ram usage:        5 bytes
  2237 ;; Hardware stack levels used:    2
  2238 ;; This function calls:
  2239 ;;		Nothing
  2240 ;; This function is called by:
  2241 ;;		_write_led
  2242 ;; This function uses a non-reentrant model
  2243 ;;
  2244                           
  2245                           
  2246                           ;psect for function _strlen
  2247  0930                     _strlen:	
  2248                           
  2249                           ;incstack = 0
  2250                           ; Regs used in _strlen: [wreg-fsr0h+status,2+status,0+pclath]
  2251                           ;strlen@s stored from wreg
  2252  0930  00F3               	movwf	strlen@s
  2253  0931                     l1636:	
  2254  0931  0873               	movf	strlen@s,w
  2255  0932  00F2               	movwf	??_strlen
  2256  0933  0872               	movf	??_strlen,w
  2257  0934  00F4               	movwf	strlen@cp
  2258  0935  293A               	goto	l1640
  2259  0936                     l1638:	
  2260  0936  3001               	movlw	1
  2261  0937  00F2               	movwf	??_strlen
  2262  0938  0872               	movf	??_strlen,w
  2263  0939  07F4               	addwf	strlen@cp,f
  2264  093A                     l1640:	
  2265  093A  0874               	movf	strlen@cp,w
  2266  093B  0084               	movwf	4
  2267  093C  120A  158A  2000  120A  158A  	fcall	stringdir
  2268  0941  3A00               	xorlw	0
  2269  0942  1D03               	skipz
  2270  0943  2945               	goto	u2281
  2271  0944  2946               	goto	u2280
  2272  0945                     u2281:	
  2273  0945  2936               	goto	l1638
  2274  0946                     u2280:	
  2275  0946                     l1642:	
  2276  0946  0873               	movf	strlen@s,w
  2277  0947  0274               	subwf	strlen@cp,w
  2278  0948  00F0               	movwf	?_strlen
  2279  0949  01F1               	clrf	?_strlen+1
  2280  094A  1BF0               	btfsc	?_strlen,7
  2281  094B  03F1               	decf	?_strlen+1,f
  2282  094C                     l630:	
  2283  094C  0008               	return
  2284  094D                     __end_of_strlen:	
  2285                           
  2286                           	psect	text3
  2287  0A08                     __ptext3:	
  2288 ;; *************** function ___xxtofl *****************
  2289 ;; Defined at:
  2290 ;;		line 10 in file "C:\Program Files (x86)\Microchip\xc8\v2.10\pic\sources\c90\common\xxtofl.c"
  2291 ;; Parameters:    Size  Location     Type
  2292 ;;  sign            1    wreg     unsigned char 
  2293 ;;  val             4    0[COMMON] long 
  2294 ;; Auto vars:     Size  Location     Type
  2295 ;;  sign            1    8[COMMON] unsigned char 
  2296 ;;  arg             4   10[COMMON] unsigned long 
  2297 ;;  exp             1    9[COMMON] unsigned char 
  2298 ;; Return value:  Size  Location     Type
  2299 ;;                  4    0[COMMON] unsigned char 
  2300 ;; Registers used:
  2301 ;;		wreg, status,2, status,0
  2302 ;; Tracked objects:
  2303 ;;		On entry : 0/0
  2304 ;;		On exit  : 0/0
  2305 ;;		Unchanged: 0/0
  2306 ;; Data sizes:     COMMON   BANK0   BANK1   BANK3   BANK2
  2307 ;;      Params:         4       0       0       0       0
  2308 ;;      Locals:         6       0       0       0       0
  2309 ;;      Temps:          4       0       0       0       0
  2310 ;;      Totals:        14       0       0       0       0
  2311 ;;Total ram usage:       14 bytes
  2312 ;; Hardware stack levels used:    1
  2313 ;; This function calls:
  2314 ;;		Nothing
  2315 ;; This function is called by:
  2316 ;;		_write_led
  2317 ;; This function uses a non-reentrant model
  2318 ;;
  2319                           
  2320                           
  2321                           ;psect for function ___xxtofl
  2322  0A08                     ___xxtofl:	
  2323                           
  2324                           ;incstack = 0
  2325                           ; Regs used in ___xxtofl: [wreg+status,2+status,0]
  2326                           ;___xxtofl@sign stored from wreg
  2327  0A08  00F8               	movwf	___xxtofl@sign
  2328  0A09                     l1954:	
  2329  0A09  0878               	movf	___xxtofl@sign,w
  2330  0A0A  1903               	btfsc	3,2
  2331  0A0B  2A0D               	goto	u3021
  2332  0A0C  2A0E               	goto	u3020
  2333  0A0D                     u3021:	
  2334  0A0D  2A22               	goto	l1960
  2335  0A0E                     u3020:	
  2336  0A0E                     l1956:	
  2337  0A0E  1FF3               	btfss	___xxtofl@val+3,7
  2338  0A0F  2A11               	goto	u3031
  2339  0A10  2A12               	goto	u3030
  2340  0A11                     u3031:	
  2341  0A11  2A22               	goto	l1960
  2342  0A12                     u3030:	
  2343  0A12                     l1958:	
  2344  0A12  0970               	comf	___xxtofl@val,w
  2345  0A13  00FA               	movwf	___xxtofl@arg
  2346  0A14  0971               	comf	___xxtofl@val+1,w
  2347  0A15  00FB               	movwf	___xxtofl@arg+1
  2348  0A16  0972               	comf	___xxtofl@val+2,w
  2349  0A17  00FC               	movwf	___xxtofl@arg+2
  2350  0A18  0973               	comf	___xxtofl@val+3,w
  2351  0A19  00FD               	movwf	___xxtofl@arg+3
  2352  0A1A  0AFA               	incf	___xxtofl@arg,f
  2353  0A1B  1903               	skipnz
  2354  0A1C  0AFB               	incf	___xxtofl@arg+1,f
  2355  0A1D  1903               	skipnz
  2356  0A1E  0AFC               	incf	___xxtofl@arg+2,f
  2357  0A1F  1903               	skipnz
  2358  0A20  0AFD               	incf	___xxtofl@arg+3,f
  2359  0A21  2A2A               	goto	l609
  2360  0A22                     l1960:	
  2361  0A22  0873               	movf	___xxtofl@val+3,w
  2362  0A23  00FD               	movwf	___xxtofl@arg+3
  2363  0A24  0872               	movf	___xxtofl@val+2,w
  2364  0A25  00FC               	movwf	___xxtofl@arg+2
  2365  0A26  0871               	movf	___xxtofl@val+1,w
  2366  0A27  00FB               	movwf	___xxtofl@arg+1
  2367  0A28  0870               	movf	___xxtofl@val,w
  2368  0A29  00FA               	movwf	___xxtofl@arg
  2369  0A2A                     l609:	
  2370  0A2A  0873               	movf	___xxtofl@val+3,w
  2371  0A2B  0472               	iorwf	___xxtofl@val+2,w
  2372  0A2C  0471               	iorwf	___xxtofl@val+1,w
  2373  0A2D  0470               	iorwf	___xxtofl@val,w
  2374  0A2E  1D03               	skipz
  2375  0A2F  2A31               	goto	u3041
  2376  0A30  2A32               	goto	u3040
  2377  0A31                     u3041:	
  2378  0A31  2A3B               	goto	l1966
  2379  0A32                     u3040:	
  2380  0A32                     l1962:	
  2381  0A32  3000               	movlw	0
  2382  0A33  00F3               	movwf	?___xxtofl+3
  2383  0A34  3000               	movlw	0
  2384  0A35  00F2               	movwf	?___xxtofl+2
  2385  0A36  3000               	movlw	0
  2386  0A37  00F1               	movwf	?___xxtofl+1
  2387  0A38  3000               	movlw	0
  2388  0A39  00F0               	movwf	?___xxtofl
  2389  0A3A  2AC1               	goto	l611
  2390  0A3B                     l1966:	
  2391  0A3B  3096               	movlw	150
  2392  0A3C  00F4               	movwf	??___xxtofl
  2393  0A3D  0874               	movf	??___xxtofl,w
  2394  0A3E  00F9               	movwf	___xxtofl@exp
  2395  0A3F  2A4D               	goto	l1970
  2396  0A40                     l1968:	
  2397  0A40  3001               	movlw	1
  2398  0A41  00F4               	movwf	??___xxtofl
  2399  0A42  0874               	movf	??___xxtofl,w
  2400  0A43  07F9               	addwf	___xxtofl@exp,f
  2401  0A44  3001               	movlw	1
  2402  0A45                     u3055:	
  2403  0A45  1003               	clrc
  2404  0A46  0CFD               	rrf	___xxtofl@arg+3,f
  2405  0A47  0CFC               	rrf	___xxtofl@arg+2,f
  2406  0A48  0CFB               	rrf	___xxtofl@arg+1,f
  2407  0A49  0CFA               	rrf	___xxtofl@arg,f
  2408  0A4A  3EFF               	addlw	-1
  2409  0A4B  1D03               	skipz
  2410  0A4C  2A45               	goto	u3055
  2411  0A4D                     l1970:	
  2412  0A4D  30FE               	movlw	254
  2413  0A4E  057D               	andwf	___xxtofl@arg+3,w
  2414  0A4F  1D03               	btfss	3,2
  2415  0A50  2A52               	goto	u3061
  2416  0A51  2A53               	goto	u3060
  2417  0A52                     u3061:	
  2418  0A52  2A40               	goto	l1968
  2419  0A53                     u3060:	
  2420  0A53  2A6F               	goto	l615
  2421  0A54                     l1972:	
  2422  0A54  3001               	movlw	1
  2423  0A55  00F4               	movwf	??___xxtofl
  2424  0A56  0874               	movf	??___xxtofl,w
  2425  0A57  07F9               	addwf	___xxtofl@exp,f
  2426  0A58                     l1974:	
  2427  0A58  3001               	movlw	1
  2428  0A59  07FA               	addwf	___xxtofl@arg,f
  2429  0A5A  3000               	movlw	0
  2430  0A5B  1803               	skipnc
  2431  0A5C  3001               	movlw	1
  2432  0A5D  07FB               	addwf	___xxtofl@arg+1,f
  2433  0A5E  3000               	movlw	0
  2434  0A5F  1803               	skipnc
  2435  0A60  3001               	movlw	1
  2436  0A61  07FC               	addwf	___xxtofl@arg+2,f
  2437  0A62  3000               	movlw	0
  2438  0A63  1803               	skipnc
  2439  0A64  3001               	movlw	1
  2440  0A65  07FD               	addwf	___xxtofl@arg+3,f
  2441  0A66                     l1976:	
  2442  0A66  3001               	movlw	1
  2443  0A67                     u3075:	
  2444  0A67  1003               	clrc
  2445  0A68  0CFD               	rrf	___xxtofl@arg+3,f
  2446  0A69  0CFC               	rrf	___xxtofl@arg+2,f
  2447  0A6A  0CFB               	rrf	___xxtofl@arg+1,f
  2448  0A6B  0CFA               	rrf	___xxtofl@arg,f
  2449  0A6C  3EFF               	addlw	-1
  2450  0A6D  1D03               	skipz
  2451  0A6E  2A67               	goto	u3075
  2452  0A6F                     l615:	
  2453  0A6F  30FF               	movlw	255
  2454  0A70  057D               	andwf	___xxtofl@arg+3,w
  2455  0A71  1D03               	btfss	3,2
  2456  0A72  2A74               	goto	u3081
  2457  0A73  2A75               	goto	u3080
  2458  0A74                     u3081:	
  2459  0A74  2A54               	goto	l1972
  2460  0A75                     u3080:	
  2461  0A75  2A81               	goto	l1980
  2462  0A76                     l1978:	
  2463  0A76  3001               	movlw	1
  2464  0A77  02F9               	subwf	___xxtofl@exp,f
  2465  0A78  3001               	movlw	1
  2466  0A79  00F4               	movwf	??___xxtofl
  2467  0A7A                     u3095:	
  2468  0A7A  1003               	clrc
  2469  0A7B  0DFA               	rlf	___xxtofl@arg,f
  2470  0A7C  0DFB               	rlf	___xxtofl@arg+1,f
  2471  0A7D  0DFC               	rlf	___xxtofl@arg+2,f
  2472  0A7E  0DFD               	rlf	___xxtofl@arg+3,f
  2473  0A7F  0BF4               	decfsz	??___xxtofl,f
  2474  0A80  2A7A               	goto	u3095
  2475  0A81                     l1980:	
  2476  0A81  1BFC               	btfsc	___xxtofl@arg+2,7
  2477  0A82  2A84               	goto	u3101
  2478  0A83  2A85               	goto	u3100
  2479  0A84                     u3101:	
  2480  0A84  2A8B               	goto	l622
  2481  0A85                     u3100:	
  2482  0A85                     l1982:	
  2483  0A85  3002               	movlw	2
  2484  0A86  0279               	subwf	___xxtofl@exp,w
  2485  0A87  1803               	skipnc
  2486  0A88  2A8A               	goto	u3111
  2487  0A89  2A8B               	goto	u3110
  2488  0A8A                     u3111:	
  2489  0A8A  2A76               	goto	l1978
  2490  0A8B                     u3110:	
  2491  0A8B                     l622:	
  2492  0A8B  1879               	btfsc	___xxtofl@exp,0
  2493  0A8C  2A8E               	goto	u3121
  2494  0A8D  2A8F               	goto	u3120
  2495  0A8E                     u3121:	
  2496  0A8E  2A97               	goto	l623
  2497  0A8F                     u3120:	
  2498  0A8F                     l1984:	
  2499  0A8F  30FF               	movlw	255
  2500  0A90  05FA               	andwf	___xxtofl@arg,f
  2501  0A91  30FF               	movlw	255
  2502  0A92  05FB               	andwf	___xxtofl@arg+1,f
  2503  0A93  307F               	movlw	127
  2504  0A94  05FC               	andwf	___xxtofl@arg+2,f
  2505  0A95  30FF               	movlw	255
  2506  0A96  05FD               	andwf	___xxtofl@arg+3,f
  2507  0A97                     l623:	
  2508  0A97  1003               	clrc
  2509  0A98  0CF9               	rrf	___xxtofl@exp,f
  2510  0A99                     l1986:	
  2511  0A99  0879               	movf	___xxtofl@exp,w
  2512  0A9A  00F4               	movwf	??___xxtofl
  2513  0A9B  01F5               	clrf	??___xxtofl+1
  2514  0A9C  01F6               	clrf	??___xxtofl+2
  2515  0A9D  01F7               	clrf	??___xxtofl+3
  2516  0A9E  3018               	movlw	24
  2517  0A9F                     u3135:	
  2518  0A9F  1003               	clrc
  2519  0AA0  0DF4               	rlf	??___xxtofl,f
  2520  0AA1  0DF5               	rlf	??___xxtofl+1,f
  2521  0AA2  0DF6               	rlf	??___xxtofl+2,f
  2522  0AA3  0DF7               	rlf	??___xxtofl+3,f
  2523  0AA4                     u3130:	
  2524  0AA4  3EFF               	addlw	-1
  2525  0AA5  1D03               	skipz
  2526  0AA6  2A9F               	goto	u3135
  2527  0AA7  0874               	movf	??___xxtofl,w
  2528  0AA8  04FA               	iorwf	___xxtofl@arg,f
  2529  0AA9  0875               	movf	??___xxtofl+1,w
  2530  0AAA  04FB               	iorwf	___xxtofl@arg+1,f
  2531  0AAB  0876               	movf	??___xxtofl+2,w
  2532  0AAC  04FC               	iorwf	___xxtofl@arg+2,f
  2533  0AAD  0877               	movf	??___xxtofl+3,w
  2534  0AAE  04FD               	iorwf	___xxtofl@arg+3,f
  2535  0AAF                     l1988:	
  2536  0AAF  0878               	movf	___xxtofl@sign,w
  2537  0AB0  1903               	btfsc	3,2
  2538  0AB1  2AB3               	goto	u3141
  2539  0AB2  2AB4               	goto	u3140
  2540  0AB3                     u3141:	
  2541  0AB3  2AB9               	goto	l1994
  2542  0AB4                     u3140:	
  2543  0AB4                     l1990:	
  2544  0AB4  1FF3               	btfss	___xxtofl@val+3,7
  2545  0AB5  2AB7               	goto	u3151
  2546  0AB6  2AB8               	goto	u3150
  2547  0AB7                     u3151:	
  2548  0AB7  2AB9               	goto	l1994
  2549  0AB8                     u3150:	
  2550  0AB8                     l1992:	
  2551  0AB8  17FD               	bsf	___xxtofl@arg+3,7
  2552  0AB9                     l1994:	
  2553  0AB9  087D               	movf	___xxtofl@arg+3,w
  2554  0ABA  00F3               	movwf	?___xxtofl+3
  2555  0ABB  087C               	movf	___xxtofl@arg+2,w
  2556  0ABC  00F2               	movwf	?___xxtofl+2
  2557  0ABD  087B               	movf	___xxtofl@arg+1,w
  2558  0ABE  00F1               	movwf	?___xxtofl+1
  2559  0ABF  087A               	movf	___xxtofl@arg,w
  2560  0AC0  00F0               	movwf	?___xxtofl
  2561  0AC1                     l611:	
  2562  0AC1  0008               	return
  2563  0AC2                     __end_of___xxtofl:	
  2564                           
  2565                           	psect	text4
  2566  094D                     __ptext4:	
  2567 ;; *************** function ___flsub *****************
  2568 ;; Defined at:
  2569 ;;		line 242 in file "C:\Program Files (x86)\Microchip\xc8\v2.10\pic\sources\c90\common\sprcadd.c"
  2570 ;; Parameters:    Size  Location     Type
  2571 ;;  a               4   52[BANK0 ] unsigned char 
  2572 ;;  b               4   56[BANK0 ] unsigned char 
  2573 ;; Auto vars:     Size  Location     Type
  2574 ;;		None
  2575 ;; Return value:  Size  Location     Type
  2576 ;;                  4   52[BANK0 ] unsigned char 
  2577 ;; Registers used:
  2578 ;;		wreg, status,2, status,0, btemp+1, pclath, cstack
  2579 ;; Tracked objects:
  2580 ;;		On entry : 0/0
  2581 ;;		On exit  : 0/0
  2582 ;;		Unchanged: 0/0
  2583 ;; Data sizes:     COMMON   BANK0   BANK1   BANK3   BANK2
  2584 ;;      Params:         0       8       0       0       0
  2585 ;;      Locals:         0       0       0       0       0
  2586 ;;      Temps:          0       0       0       0       0
  2587 ;;      Totals:         0       8       0       0       0
  2588 ;;Total ram usage:        8 bytes
  2589 ;; Hardware stack levels used:    1
  2590 ;; Hardware stack levels required when called:    1
  2591 ;; This function calls:
  2592 ;;		___fladd
  2593 ;; This function is called by:
  2594 ;;		_write_led
  2595 ;; This function uses a non-reentrant model
  2596 ;;
  2597                           
  2598                           
  2599                           ;psect for function ___flsub
  2600  094D                     ___flsub:	
  2601  094D                     l1666:	
  2602                           ;incstack = 0
  2603                           ; Regs used in ___flsub: [wreg+status,2+status,0+btemp+1+pclath+cstack]
  2604                           
  2605  094D  3080               	movlw	128
  2606  094E  1283               	bcf	3,5	;RP0=0, select bank0
  2607  094F  1303               	bcf	3,6	;RP1=0, select bank0
  2608  0950  06D7               	xorwf	___flsub@a+3,f
  2609  0951                     l1668:	
  2610  0951  085B               	movf	___flsub@b+3,w
  2611  0952  00F3               	movwf	___fladd@b+3
  2612  0953  085A               	movf	___flsub@b+2,w
  2613  0954  00F2               	movwf	___fladd@b+2
  2614  0955  0859               	movf	___flsub@b+1,w
  2615  0956  00F1               	movwf	___fladd@b+1
  2616  0957  0858               	movf	___flsub@b,w
  2617  0958  00F0               	movwf	___fladd@b
  2618  0959  0857               	movf	___flsub@a+3,w
  2619  095A  00F7               	movwf	___fladd@a+3
  2620  095B  0856               	movf	___flsub@a+2,w
  2621  095C  00F6               	movwf	___fladd@a+2
  2622  095D  0855               	movf	___flsub@a+1,w
  2623  095E  00F5               	movwf	___fladd@a+1
  2624  095F  0854               	movf	___flsub@a,w
  2625  0960  00F4               	movwf	___fladd@a
  2626  0961  120A  118A  20BA  120A  158A  	fcall	___fladd
  2627  0966  0873               	movf	?___fladd+3,w
  2628  0967  1283               	bcf	3,5	;RP0=0, select bank0
  2629  0968  1303               	bcf	3,6	;RP1=0, select bank0
  2630  0969  00D7               	movwf	?___flsub+3
  2631  096A  0872               	movf	?___fladd+2,w
  2632  096B  00D6               	movwf	?___flsub+2
  2633  096C  0871               	movf	?___fladd+1,w
  2634  096D  00D5               	movwf	?___flsub+1
  2635  096E  0870               	movf	?___fladd,w
  2636  096F  00D4               	movwf	?___flsub
  2637  0970                     l521:	
  2638  0970  0008               	return
  2639  0971                     __end_of___flsub:	
  2640                           
  2641                           	psect	text5
  2642  00BA                     __ptext5:	
  2643 ;; *************** function ___fladd *****************
  2644 ;; Defined at:
  2645 ;;		line 10 in file "C:\Program Files (x86)\Microchip\xc8\v2.10\pic\sources\c90\common\sprcadd.c"
  2646 ;; Parameters:    Size  Location     Type
  2647 ;;  b               4    0[COMMON] unsigned char 
  2648 ;;  a               4    4[COMMON] unsigned char 
  2649 ;; Auto vars:     Size  Location     Type
  2650 ;;  grs             1   11[COMMON] unsigned char 
  2651 ;;  bexp            1   10[COMMON] unsigned char 
  2652 ;;  aexp            1    9[COMMON] unsigned char 
  2653 ;;  signs           1    8[COMMON] unsigned char 
  2654 ;; Return value:  Size  Location     Type
  2655 ;;                  4    0[COMMON] unsigned char 
  2656 ;; Registers used:
  2657 ;;		wreg, status,2, status,0, btemp+1
  2658 ;; Tracked objects:
  2659 ;;		On entry : 0/0
  2660 ;;		On exit  : 0/0
  2661 ;;		Unchanged: 0/0
  2662 ;; Data sizes:     COMMON   BANK0   BANK1   BANK3   BANK2
  2663 ;;      Params:         8       0       0       0       0
  2664 ;;      Locals:         4       0       0       0       0
  2665 ;;      Temps:          0       8       0       0       0
  2666 ;;      Totals:        12       8       0       0       0
  2667 ;;Total ram usage:       20 bytes
  2668 ;; Hardware stack levels used:    1
  2669 ;; This function calls:
  2670 ;;		Nothing
  2671 ;; This function is called by:
  2672 ;;		___flsub
  2673 ;; This function uses a non-reentrant model
  2674 ;;
  2675                           
  2676                           
  2677                           ;psect for function ___fladd
  2678  00BA                     ___fladd:	
  2679  00BA                     l1428:	
  2680                           ;incstack = 0
  2681                           ; Regs used in ___fladd: [wreg+status,2+status,0+btemp+1]
  2682                           
  2683  00BA  0873               	movf	___fladd@b+3,w
  2684  00BB  3980               	andlw	128
  2685  00BC  1283               	bcf	3,5	;RP0=0, select bank0
  2686  00BD  1303               	bcf	3,6	;RP1=0, select bank0
  2687  00BE  00A0               	movwf	??___fladd
  2688  00BF  0820               	movf	??___fladd,w
  2689  00C0  00F8               	movwf	___fladd@signs
  2690  00C1                     l1430:	
  2691  00C1  0873               	movf	___fladd@b+3,w
  2692  00C2  00A0               	movwf	??___fladd
  2693  00C3  0720               	addwf	??___fladd,w
  2694  00C4  00A1               	movwf	??___fladd+1
  2695  00C5  0821               	movf	??___fladd+1,w
  2696  00C6  00FA               	movwf	___fladd@bexp
  2697  00C7                     l1432:	
  2698  00C7  1FF2               	btfss	___fladd@b+2,7
  2699  00C8  28CA               	goto	u1791
  2700  00C9  28CB               	goto	u1790
  2701  00CA                     u1791:	
  2702  00CA  28CC               	goto	l1436
  2703  00CB                     u1790:	
  2704  00CB                     l1434:	
  2705  00CB  147A               	bsf	___fladd@bexp,0
  2706  00CC                     l1436:	
  2707  00CC  087A               	movf	___fladd@bexp,w
  2708  00CD  1903               	btfsc	3,2
  2709  00CE  28D0               	goto	u1801
  2710  00CF  28D1               	goto	u1800
  2711  00D0                     u1801:	
  2712  00D0  28E1               	goto	l1446
  2713  00D1                     u1800:	
  2714  00D1                     l1438:	
  2715  00D1  0A7A               	incf	___fladd@bexp,w
  2716  00D2  1D03               	btfss	3,2
  2717  00D3  28D5               	goto	u1811
  2718  00D4  28D6               	goto	u1810
  2719  00D5                     u1811:	
  2720  00D5  28DE               	goto	l1442
  2721  00D6                     u1810:	
  2722  00D6                     l1440:	
  2723  00D6  3000               	movlw	0
  2724  00D7  00F3               	movwf	___fladd@b+3
  2725  00D8  3000               	movlw	0
  2726  00D9  00F2               	movwf	___fladd@b+2
  2727  00DA  3000               	movlw	0
  2728  00DB  00F1               	movwf	___fladd@b+1
  2729  00DC  3000               	movlw	0
  2730  00DD  00F0               	movwf	___fladd@b
  2731  00DE                     l1442:	
  2732  00DE  17F2               	bsf	___fladd@b+2,7
  2733  00DF                     l1444:	
  2734  00DF  01F3               	clrf	___fladd@b+3
  2735  00E0  28E9               	goto	l1448
  2736  00E1                     l1446:	
  2737  00E1  3000               	movlw	0
  2738  00E2  00F3               	movwf	___fladd@b+3
  2739  00E3  3000               	movlw	0
  2740  00E4  00F2               	movwf	___fladd@b+2
  2741  00E5  3000               	movlw	0
  2742  00E6  00F1               	movwf	___fladd@b+1
  2743  00E7  3000               	movlw	0
  2744  00E8  00F0               	movwf	___fladd@b
  2745  00E9                     l1448:	
  2746  00E9  0877               	movf	___fladd@a+3,w
  2747  00EA  3980               	andlw	128
  2748  00EB  00A0               	movwf	??___fladd
  2749  00EC  0820               	movf	??___fladd,w
  2750  00ED  00F9               	movwf	___fladd@aexp
  2751  00EE                     l1450:	
  2752  00EE  0879               	movf	___fladd@aexp,w
  2753  00EF  0678               	xorwf	___fladd@signs,w
  2754  00F0  1903               	skipnz
  2755  00F1  28F3               	goto	u1821
  2756  00F2  28F4               	goto	u1820
  2757  00F3                     u1821:	
  2758  00F3  28F5               	goto	l1454
  2759  00F4                     u1820:	
  2760  00F4                     l1452:	
  2761  00F4  1778               	bsf	___fladd@signs,6
  2762  00F5                     l1454:	
  2763  00F5  0877               	movf	___fladd@a+3,w
  2764  00F6  00A0               	movwf	??___fladd
  2765  00F7  0720               	addwf	??___fladd,w
  2766  00F8  00A1               	movwf	??___fladd+1
  2767  00F9  0821               	movf	??___fladd+1,w
  2768  00FA  00F9               	movwf	___fladd@aexp
  2769  00FB                     l1456:	
  2770  00FB  1FF6               	btfss	___fladd@a+2,7
  2771  00FC  28FE               	goto	u1831
  2772  00FD  28FF               	goto	u1830
  2773  00FE                     u1831:	
  2774  00FE  2900               	goto	l1460
  2775  00FF                     u1830:	
  2776  00FF                     l1458:	
  2777  00FF  1479               	bsf	___fladd@aexp,0
  2778  0100                     l1460:	
  2779  0100  0879               	movf	___fladd@aexp,w
  2780  0101  1903               	btfsc	3,2
  2781  0102  2904               	goto	u1841
  2782  0103  2905               	goto	u1840
  2783  0104                     u1841:	
  2784  0104  2915               	goto	l1470
  2785  0105                     u1840:	
  2786  0105                     l1462:	
  2787  0105  0A79               	incf	___fladd@aexp,w
  2788  0106  1D03               	btfss	3,2
  2789  0107  2909               	goto	u1851
  2790  0108  290A               	goto	u1850
  2791  0109                     u1851:	
  2792  0109  2912               	goto	l1466
  2793  010A                     u1850:	
  2794  010A                     l1464:	
  2795  010A  3000               	movlw	0
  2796  010B  00F7               	movwf	___fladd@a+3
  2797  010C  3000               	movlw	0
  2798  010D  00F6               	movwf	___fladd@a+2
  2799  010E  3000               	movlw	0
  2800  010F  00F5               	movwf	___fladd@a+1
  2801  0110  3000               	movlw	0
  2802  0111  00F4               	movwf	___fladd@a
  2803  0112                     l1466:	
  2804  0112  17F6               	bsf	___fladd@a+2,7
  2805  0113                     l1468:	
  2806  0113  01F7               	clrf	___fladd@a+3
  2807  0114  291D               	goto	l475
  2808  0115                     l1470:	
  2809  0115  3000               	movlw	0
  2810  0116  00F7               	movwf	___fladd@a+3
  2811  0117  3000               	movlw	0
  2812  0118  00F6               	movwf	___fladd@a+2
  2813  0119  3000               	movlw	0
  2814  011A  00F5               	movwf	___fladd@a+1
  2815  011B  3000               	movlw	0
  2816  011C  00F4               	movwf	___fladd@a
  2817  011D                     l475:	
  2818  011D  087A               	movf	___fladd@bexp,w
  2819  011E  0279               	subwf	___fladd@aexp,w
  2820  011F  1803               	skipnc
  2821  0120  2922               	goto	u1861
  2822  0121  2923               	goto	u1860
  2823  0122                     u1861:	
  2824  0122  2967               	goto	l1506
  2825  0123                     u1860:	
  2826  0123                     l1472:	
  2827  0123  1F78               	btfss	___fladd@signs,6
  2828  0124  2926               	goto	u1871
  2829  0125  2927               	goto	u1870
  2830  0126                     u1871:	
  2831  0126  292B               	goto	l1476
  2832  0127                     u1870:	
  2833  0127                     l1474:	
  2834  0127  3080               	movlw	128
  2835  0128  00A0               	movwf	??___fladd
  2836  0129  0820               	movf	??___fladd,w
  2837  012A  06F8               	xorwf	___fladd@signs,f
  2838  012B                     l1476:	
  2839  012B  087A               	movf	___fladd@bexp,w
  2840  012C  00A0               	movwf	??___fladd
  2841  012D  0820               	movf	??___fladd,w
  2842  012E  00FB               	movwf	___fladd@grs
  2843  012F                     l1478:	
  2844  012F  0879               	movf	___fladd@aexp,w
  2845  0130  00A0               	movwf	??___fladd
  2846  0131  0820               	movf	??___fladd,w
  2847  0132  00FA               	movwf	___fladd@bexp
  2848  0133                     l1480:	
  2849  0133  087B               	movf	___fladd@grs,w
  2850  0134  00A0               	movwf	??___fladd
  2851  0135  0820               	movf	??___fladd,w
  2852  0136  00F9               	movwf	___fladd@aexp
  2853  0137                     l1482:	
  2854  0137  0870               	movf	___fladd@b,w
  2855  0138  00A0               	movwf	??___fladd
  2856  0139  0820               	movf	??___fladd,w
  2857  013A  00FB               	movwf	___fladd@grs
  2858  013B                     l1484:	
  2859  013B  0874               	movf	___fladd@a,w
  2860  013C  00A0               	movwf	??___fladd
  2861  013D  0820               	movf	??___fladd,w
  2862  013E  00F0               	movwf	___fladd@b
  2863  013F                     l1486:	
  2864  013F  087B               	movf	___fladd@grs,w
  2865  0140  00A0               	movwf	??___fladd
  2866  0141  0820               	movf	??___fladd,w
  2867  0142  00F4               	movwf	___fladd@a
  2868  0143                     l1488:	
  2869  0143  0871               	movf	___fladd@b+1,w
  2870  0144  00A0               	movwf	??___fladd
  2871  0145  0820               	movf	??___fladd,w
  2872  0146  00FB               	movwf	___fladd@grs
  2873  0147                     l1490:	
  2874  0147  0875               	movf	___fladd@a+1,w
  2875  0148  00A0               	movwf	??___fladd
  2876  0149  0820               	movf	??___fladd,w
  2877  014A  00F1               	movwf	___fladd@b+1
  2878  014B                     l1492:	
  2879  014B  087B               	movf	___fladd@grs,w
  2880  014C  00A0               	movwf	??___fladd
  2881  014D  0820               	movf	??___fladd,w
  2882  014E  00F5               	movwf	___fladd@a+1
  2883  014F                     l1494:	
  2884  014F  0872               	movf	___fladd@b+2,w
  2885  0150  00A0               	movwf	??___fladd
  2886  0151  0820               	movf	??___fladd,w
  2887  0152  00FB               	movwf	___fladd@grs
  2888  0153                     l1496:	
  2889  0153  0876               	movf	___fladd@a+2,w
  2890  0154  00A0               	movwf	??___fladd
  2891  0155  0820               	movf	??___fladd,w
  2892  0156  00F2               	movwf	___fladd@b+2
  2893  0157                     l1498:	
  2894  0157  087B               	movf	___fladd@grs,w
  2895  0158  00A0               	movwf	??___fladd
  2896  0159  0820               	movf	??___fladd,w
  2897  015A  00F6               	movwf	___fladd@a+2
  2898  015B                     l1500:	
  2899  015B  0873               	movf	___fladd@b+3,w
  2900  015C  00A0               	movwf	??___fladd
  2901  015D  0820               	movf	??___fladd,w
  2902  015E  00FB               	movwf	___fladd@grs
  2903  015F                     l1502:	
  2904  015F  0877               	movf	___fladd@a+3,w
  2905  0160  00A0               	movwf	??___fladd
  2906  0161  0820               	movf	??___fladd,w
  2907  0162  00F3               	movwf	___fladd@b+3
  2908  0163                     l1504:	
  2909  0163  087B               	movf	___fladd@grs,w
  2910  0164  00A0               	movwf	??___fladd
  2911  0165  0820               	movf	??___fladd,w
  2912  0166  00F7               	movwf	___fladd@a+3
  2913  0167                     l1506:	
  2914  0167  01FB               	clrf	___fladd@grs
  2915  0168                     l1508:	
  2916  0168  0879               	movf	___fladd@aexp,w
  2917  0169  00A0               	movwf	??___fladd
  2918  016A  01A1               	clrf	??___fladd+1
  2919  016B  0821               	movf	??___fladd+1,w
  2920  016C  00A3               	movwf	??___fladd+3
  2921  016D  087A               	movf	___fladd@bexp,w
  2922  016E  0220               	subwf	??___fladd,w
  2923  016F  00A2               	movwf	??___fladd+2
  2924  0170  1C03               	skipc
  2925  0171  03A3               	decf	??___fladd+3,f
  2926  0172  0823               	movf	??___fladd+3,w
  2927  0173  3A80               	xorlw	128
  2928  0174  00FF               	movwf	btemp+1
  2929  0175  3080               	movlw	128
  2930  0176  027F               	subwf	btemp+1,w
  2931  0177  1D03               	skipz
  2932  0178  297B               	goto	u1885
  2933  0179  301A               	movlw	26
  2934  017A  0222               	subwf	??___fladd+2,w
  2935  017B                     u1885:	
  2936  017B  1C03               	skipc
  2937  017C  297E               	goto	u1881
  2938  017D  297F               	goto	u1880
  2939  017E                     u1881:	
  2940  017E  29C0               	goto	l1524
  2941  017F                     u1880:	
  2942  017F                     l1510:	
  2943  017F  0873               	movf	___fladd@b+3,w
  2944  0180  0472               	iorwf	___fladd@b+2,w
  2945  0181  0471               	iorwf	___fladd@b+1,w
  2946  0182  0470               	iorwf	___fladd@b,w
  2947  0183  1D03               	skipz
  2948  0184  2986               	goto	u1891
  2949  0185  2988               	goto	u1890
  2950  0186                     u1891:	
  2951  0186  3001               	movlw	1
  2952  0187  2989               	goto	u1900
  2953  0188                     u1890:	
  2954  0188  3000               	movlw	0
  2955  0189                     u1900:	
  2956  0189  1283               	bcf	3,5	;RP0=0, select bank0
  2957  018A  1303               	bcf	3,6	;RP1=0, select bank0
  2958  018B  00A0               	movwf	??___fladd
  2959  018C  0820               	movf	??___fladd,w
  2960  018D  00FB               	movwf	___fladd@grs
  2961  018E  3000               	movlw	0
  2962  018F  00F3               	movwf	___fladd@b+3
  2963  0190  3000               	movlw	0
  2964  0191  00F2               	movwf	___fladd@b+2
  2965  0192  3000               	movlw	0
  2966  0193  00F1               	movwf	___fladd@b+1
  2967  0194  3000               	movlw	0
  2968  0195  00F0               	movwf	___fladd@b
  2969  0196  0879               	movf	___fladd@aexp,w
  2970  0197  00A0               	movwf	??___fladd
  2971  0198  0820               	movf	??___fladd,w
  2972  0199  00FA               	movwf	___fladd@bexp
  2973  019A  29C6               	goto	l479
  2974  019B                     l481:	
  2975  019B  1C7B               	btfss	___fladd@grs,0
  2976  019C  299E               	goto	u1911
  2977  019D  299F               	goto	u1910
  2978  019E                     u1911:	
  2979  019E  29AA               	goto	l1514
  2980  019F                     u1910:	
  2981  019F                     l1512:	
  2982  019F  087B               	movf	___fladd@grs,w
  2983  01A0  1283               	bcf	3,5	;RP0=0, select bank0
  2984  01A1  1303               	bcf	3,6	;RP1=0, select bank0
  2985  01A2  00A0               	movwf	??___fladd
  2986  01A3  1003               	clrc
  2987  01A4  0C20               	rrf	??___fladd,w
  2988  01A5  3801               	iorlw	1
  2989  01A6  00A1               	movwf	??___fladd+1
  2990  01A7  0821               	movf	??___fladd+1,w
  2991  01A8  00FB               	movwf	___fladd@grs
  2992  01A9  29AC               	goto	l1516
  2993  01AA                     l1514:	
  2994  01AA  1003               	clrc
  2995  01AB  0CFB               	rrf	___fladd@grs,f
  2996  01AC                     l1516:	
  2997  01AC  1C70               	btfss	___fladd@b,0
  2998  01AD  29AF               	goto	u1921
  2999  01AE  29B0               	goto	u1920
  3000  01AF                     u1921:	
  3001  01AF  29B1               	goto	l1520
  3002  01B0                     u1920:	
  3003  01B0                     l1518:	
  3004  01B0  17FB               	bsf	___fladd@grs,7
  3005  01B1                     l1520:	
  3006  01B1  3001               	movlw	1
  3007  01B2  1283               	bcf	3,5	;RP0=0, select bank0
  3008  01B3  1303               	bcf	3,6	;RP1=0, select bank0
  3009  01B4  00A0               	movwf	??___fladd
  3010  01B5                     u1935:	
  3011  01B5  0D73               	rlf	___fladd@b+3,w
  3012  01B6  0CF3               	rrf	___fladd@b+3,f
  3013  01B7  0CF2               	rrf	___fladd@b+2,f
  3014  01B8  0CF1               	rrf	___fladd@b+1,f
  3015  01B9  0CF0               	rrf	___fladd@b,f
  3016  01BA  0BA0               	decfsz	??___fladd& (0+127),f
  3017  01BB  29B5               	goto	u1935
  3018  01BC                     l1522:	
  3019  01BC  3001               	movlw	1
  3020  01BD  00A0               	movwf	??___fladd
  3021  01BE  0820               	movf	??___fladd,w
  3022  01BF  07FA               	addwf	___fladd@bexp,f
  3023  01C0                     l1524:	
  3024  01C0  0879               	movf	___fladd@aexp,w
  3025  01C1  027A               	subwf	___fladd@bexp,w
  3026  01C2  1C03               	skipc
  3027  01C3  29C5               	goto	u1941
  3028  01C4  29C6               	goto	u1940
  3029  01C5                     u1941:	
  3030  01C5  299B               	goto	l481
  3031  01C6                     u1940:	
  3032  01C6                     l479:	
  3033  01C6  1B78               	btfsc	___fladd@signs,6
  3034  01C7  29C9               	goto	u1951
  3035  01C8  29CA               	goto	u1950
  3036  01C9                     u1951:	
  3037  01C9  2A19               	goto	l1550
  3038  01CA                     u1950:	
  3039  01CA                     l1526:	
  3040  01CA  087A               	movf	___fladd@bexp,w
  3041  01CB  1D03               	btfss	3,2
  3042  01CC  29CE               	goto	u1961
  3043  01CD  29CF               	goto	u1960
  3044  01CE                     u1961:	
  3045  01CE  29D8               	goto	l1532
  3046  01CF                     u1960:	
  3047  01CF                     l1528:	
  3048  01CF  3000               	movlw	0
  3049  01D0  00F3               	movwf	?___fladd+3
  3050  01D1  3000               	movlw	0
  3051  01D2  00F2               	movwf	?___fladd+2
  3052  01D3  3000               	movlw	0
  3053  01D4  00F1               	movwf	?___fladd+1
  3054  01D5  3000               	movlw	0
  3055  01D6  00F0               	movwf	?___fladd
  3056  01D7  2B51               	goto	l488
  3057  01D8                     l1532:	
  3058  01D8  0874               	movf	___fladd@a,w
  3059  01D9  07F0               	addwf	___fladd@b,f
  3060  01DA  0875               	movf	___fladd@a+1,w
  3061  01DB  1103               	clrz
  3062  01DC  1803               	skipnc
  3063  01DD  3E01               	addlw	1
  3064  01DE  1903               	skipnz
  3065  01DF  29E1               	goto	u1971
  3066  01E0  07F1               	addwf	___fladd@b+1,f
  3067  01E1                     u1971:	
  3068  01E1  0876               	movf	___fladd@a+2,w
  3069  01E2  1103               	clrz
  3070  01E3  1803               	skipnc
  3071  01E4  3E01               	addlw	1
  3072  01E5  1903               	skipnz
  3073  01E6  29E8               	goto	u1972
  3074  01E7  07F2               	addwf	___fladd@b+2,f
  3075  01E8                     u1972:	
  3076  01E8  0877               	movf	___fladd@a+3,w
  3077  01E9  1103               	clrz
  3078  01EA  1803               	skipnc
  3079  01EB  3E01               	addlw	1
  3080  01EC  1903               	skipnz
  3081  01ED  29EF               	goto	u1973
  3082  01EE  07F3               	addwf	___fladd@b+3,f
  3083  01EF                     u1973:	
  3084  01EF                     l1534:	
  3085  01EF  1C73               	btfss	___fladd@b+3,0
  3086  01F0  29F2               	goto	u1981
  3087  01F1  29F3               	goto	u1980
  3088  01F2                     u1981:	
  3089  01F2  2AD1               	goto	l1584
  3090  01F3                     u1980:	
  3091  01F3                     l1536:	
  3092  01F3  1C7B               	btfss	___fladd@grs,0
  3093  01F4  29F6               	goto	u1991
  3094  01F5  29F7               	goto	u1990
  3095  01F6                     u1991:	
  3096  01F6  2A02               	goto	l1540
  3097  01F7                     u1990:	
  3098  01F7                     l1538:	
  3099  01F7  087B               	movf	___fladd@grs,w
  3100  01F8  1283               	bcf	3,5	;RP0=0, select bank0
  3101  01F9  1303               	bcf	3,6	;RP1=0, select bank0
  3102  01FA  00A0               	movwf	??___fladd
  3103  01FB  1003               	clrc
  3104  01FC  0C20               	rrf	??___fladd,w
  3105  01FD  3801               	iorlw	1
  3106  01FE  00A1               	movwf	??___fladd+1
  3107  01FF  0821               	movf	??___fladd+1,w
  3108  0200  00FB               	movwf	___fladd@grs
  3109  0201  2A04               	goto	l1542
  3110  0202                     l1540:	
  3111  0202  1003               	clrc
  3112  0203  0CFB               	rrf	___fladd@grs,f
  3113  0204                     l1542:	
  3114  0204  1C70               	btfss	___fladd@b,0
  3115  0205  2A07               	goto	u2001
  3116  0206  2A08               	goto	u2000
  3117  0207                     u2001:	
  3118  0207  2A09               	goto	l1546
  3119  0208                     u2000:	
  3120  0208                     l1544:	
  3121  0208  17FB               	bsf	___fladd@grs,7
  3122  0209                     l1546:	
  3123  0209  3001               	movlw	1
  3124  020A  1283               	bcf	3,5	;RP0=0, select bank0
  3125  020B  1303               	bcf	3,6	;RP1=0, select bank0
  3126  020C  00A0               	movwf	??___fladd
  3127  020D                     u2015:	
  3128  020D  0D73               	rlf	___fladd@b+3,w
  3129  020E  0CF3               	rrf	___fladd@b+3,f
  3130  020F  0CF2               	rrf	___fladd@b+2,f
  3131  0210  0CF1               	rrf	___fladd@b+1,f
  3132  0211  0CF0               	rrf	___fladd@b,f
  3133  0212  0BA0               	decfsz	??___fladd& (0+127),f
  3134  0213  2A0D               	goto	u2015
  3135  0214                     l1548:	
  3136  0214  3001               	movlw	1
  3137  0215  00A0               	movwf	??___fladd
  3138  0216  0820               	movf	??___fladd,w
  3139  0217  07FA               	addwf	___fladd@bexp,f
  3140  0218  2AD1               	goto	l1584
  3141  0219                     l1550:	
  3142  0219  0873               	movf	___fladd@b+3,w
  3143  021A  3A80               	xorlw	128
  3144  021B  00FF               	movwf	btemp+1
  3145  021C  0877               	movf	___fladd@a+3,w
  3146  021D  3A80               	xorlw	128
  3147  021E  027F               	subwf	btemp+1,w
  3148  021F  1D03               	skipz
  3149  0220  2A2B               	goto	u2023
  3150  0221  0876               	movf	___fladd@a+2,w
  3151  0222  0272               	subwf	___fladd@b+2,w
  3152  0223  1D03               	skipz
  3153  0224  2A2B               	goto	u2023
  3154  0225  0875               	movf	___fladd@a+1,w
  3155  0226  0271               	subwf	___fladd@b+1,w
  3156  0227  1D03               	skipz
  3157  0228  2A2B               	goto	u2023
  3158  0229  0874               	movf	___fladd@a,w
  3159  022A  0270               	subwf	___fladd@b,w
  3160  022B                     u2023:	
  3161  022B  1803               	skipnc
  3162  022C  2A2E               	goto	u2021
  3163  022D  2A2F               	goto	u2020
  3164  022E                     u2021:	
  3165  022E  2A89               	goto	l1560
  3166  022F                     u2020:	
  3167  022F                     l1552:	
  3168  022F  30FF               	movlw	255
  3169  0230  1283               	bcf	3,5	;RP0=0, select bank0
  3170  0231  1303               	bcf	3,6	;RP1=0, select bank0
  3171  0232  00A0               	movwf	??___fladd
  3172  0233  30FF               	movlw	255
  3173  0234  00A1               	movwf	??___fladd+1
  3174  0235  30FF               	movlw	255
  3175  0236  00A2               	movwf	??___fladd+2
  3176  0237  30FF               	movlw	255
  3177  0238  00A3               	movwf	??___fladd+3
  3178  0239  0874               	movf	___fladd@a,w
  3179  023A  00A4               	movwf	??___fladd+4
  3180  023B  0875               	movf	___fladd@a+1,w
  3181  023C  00A5               	movwf	??___fladd+5
  3182  023D  0876               	movf	___fladd@a+2,w
  3183  023E  00A6               	movwf	??___fladd+6
  3184  023F  0877               	movf	___fladd@a+3,w
  3185  0240  00A7               	movwf	??___fladd+7
  3186  0241  0870               	movf	___fladd@b,w
  3187  0242  02A4               	subwf	??___fladd+4,f
  3188  0243  0871               	movf	___fladd@b+1,w
  3189  0244  1C03               	skipc
  3190  0245  0F71               	incfsz	___fladd@b+1,w
  3191  0246  2A48               	goto	u2031
  3192  0247  2A49               	goto	u2032
  3193  0248                     u2031:	
  3194  0248  02A5               	subwf	??___fladd+5,f
  3195  0249                     u2032:	
  3196  0249  0872               	movf	___fladd@b+2,w
  3197  024A  1C03               	skipc
  3198  024B  0F72               	incfsz	___fladd@b+2,w
  3199  024C  2A4E               	goto	u2033
  3200  024D  2A4F               	goto	u2034
  3201  024E                     u2033:	
  3202  024E  02A6               	subwf	??___fladd+6,f
  3203  024F                     u2034:	
  3204  024F  0873               	movf	___fladd@b+3,w
  3205  0250  1C03               	skipc
  3206  0251  0F73               	incfsz	___fladd@b+3,w
  3207  0252  2A54               	goto	u2035
  3208  0253  2A55               	goto	u2036
  3209  0254                     u2035:	
  3210  0254  02A7               	subwf	??___fladd+7,f
  3211  0255                     u2036:	
  3212  0255  0824               	movf	??___fladd+4,w
  3213  0256  07A0               	addwf	??___fladd,f
  3214  0257  0825               	movf	??___fladd+5,w
  3215  0258  1803               	skipnc
  3216  0259  0F25               	incfsz	??___fladd+5,w
  3217  025A  2A5C               	goto	u2040
  3218  025B  2A5D               	goto	u2041
  3219  025C                     u2040:	
  3220  025C  07A1               	addwf	??___fladd+1,f
  3221  025D                     u2041:	
  3222  025D  0826               	movf	??___fladd+6,w
  3223  025E  1803               	skipnc
  3224  025F  0F26               	incfsz	??___fladd+6,w
  3225  0260  2A62               	goto	u2042
  3226  0261  2A63               	goto	u2043
  3227  0262                     u2042:	
  3228  0262  07A2               	addwf	??___fladd+2,f
  3229  0263                     u2043:	
  3230  0263  0827               	movf	??___fladd+7,w
  3231  0264  1803               	skipnc
  3232  0265  0A27               	incf	??___fladd+7,w
  3233  0266  07A3               	addwf	??___fladd+3,f
  3234  0267  0823               	movf	??___fladd+3,w
  3235  0268  00F3               	movwf	___fladd@b+3
  3236  0269  0822               	movf	??___fladd+2,w
  3237  026A  00F2               	movwf	___fladd@b+2
  3238  026B  0821               	movf	??___fladd+1,w
  3239  026C  00F1               	movwf	___fladd@b+1
  3240  026D  0820               	movf	??___fladd,w
  3241  026E  00F0               	movwf	___fladd@b
  3242  026F                     l1554:	
  3243  026F  3080               	movlw	128
  3244  0270  00A0               	movwf	??___fladd
  3245  0271  0820               	movf	??___fladd,w
  3246  0272  06F8               	xorwf	___fladd@signs,f
  3247  0273  09FB               	comf	___fladd@grs,f
  3248  0274  0AFB               	incf	___fladd@grs,f
  3249  0275                     l1556:	
  3250  0275  087B               	movf	___fladd@grs,w
  3251  0276  1D03               	btfss	3,2
  3252  0277  2A79               	goto	u2051
  3253  0278  2A7A               	goto	u2050
  3254  0279                     u2051:	
  3255  0279  2A97               	goto	l496
  3256  027A                     u2050:	
  3257  027A                     l1558:	
  3258  027A  3001               	movlw	1
  3259  027B  07F0               	addwf	___fladd@b,f
  3260  027C  3000               	movlw	0
  3261  027D  1803               	skipnc
  3262  027E  3001               	movlw	1
  3263  027F  07F1               	addwf	___fladd@b+1,f
  3264  0280  3000               	movlw	0
  3265  0281  1803               	skipnc
  3266  0282  3001               	movlw	1
  3267  0283  07F2               	addwf	___fladd@b+2,f
  3268  0284  3000               	movlw	0
  3269  0285  1803               	skipnc
  3270  0286  3001               	movlw	1
  3271  0287  07F3               	addwf	___fladd@b+3,f
  3272  0288  2A97               	goto	l496
  3273  0289                     l1560:	
  3274  0289  0874               	movf	___fladd@a,w
  3275  028A  02F0               	subwf	___fladd@b,f
  3276  028B  0875               	movf	___fladd@a+1,w
  3277  028C  1C03               	skipc
  3278  028D  0F75               	incfsz	___fladd@a+1,w
  3279  028E  02F1               	subwf	___fladd@b+1,f
  3280  028F  0876               	movf	___fladd@a+2,w
  3281  0290  1C03               	skipc
  3282  0291  0F76               	incfsz	___fladd@a+2,w
  3283  0292  02F2               	subwf	___fladd@b+2,f
  3284  0293  0877               	movf	___fladd@a+3,w
  3285  0294  1C03               	skipc
  3286  0295  0F77               	incfsz	___fladd@a+3,w
  3287  0296  02F3               	subwf	___fladd@b+3,f
  3288  0297                     l496:	
  3289  0297  0873               	movf	___fladd@b+3,w
  3290  0298  0472               	iorwf	___fladd@b+2,w
  3291  0299  0471               	iorwf	___fladd@b+1,w
  3292  029A  0470               	iorwf	___fladd@b,w
  3293  029B  1D03               	skipz
  3294  029C  2A9E               	goto	u2061
  3295  029D  2A9F               	goto	u2060
  3296  029E                     u2061:	
  3297  029E  2ACD               	goto	l1582
  3298  029F                     u2060:	
  3299  029F                     l1562:	
  3300  029F  087B               	movf	___fladd@grs,w
  3301  02A0  1D03               	btfss	3,2
  3302  02A1  2AA3               	goto	u2071
  3303  02A2  2AA4               	goto	u2070
  3304  02A3                     u2071:	
  3305  02A3  2ACD               	goto	l1582
  3306  02A4                     u2070:	
  3307  02A4                     l1564:	
  3308  02A4  3000               	movlw	0
  3309  02A5  00F3               	movwf	?___fladd+3
  3310  02A6  3000               	movlw	0
  3311  02A7  00F2               	movwf	?___fladd+2
  3312  02A8  3000               	movlw	0
  3313  02A9  00F1               	movwf	?___fladd+1
  3314  02AA  3000               	movlw	0
  3315  02AB  00F0               	movwf	?___fladd
  3316  02AC  2B51               	goto	l488
  3317  02AD                     l1568:	
  3318  02AD  3001               	movlw	1
  3319  02AE  1283               	bcf	3,5	;RP0=0, select bank0
  3320  02AF  1303               	bcf	3,6	;RP1=0, select bank0
  3321  02B0  00A0               	movwf	??___fladd
  3322  02B1                     u2085:	
  3323  02B1  1003               	clrc
  3324  02B2  0DF0               	rlf	___fladd@b,f
  3325  02B3  0DF1               	rlf	___fladd@b+1,f
  3326  02B4  0DF2               	rlf	___fladd@b+2,f
  3327  02B5  0DF3               	rlf	___fladd@b+3,f
  3328  02B6  0BA0               	decfsz	??___fladd,f
  3329  02B7  2AB1               	goto	u2085
  3330  02B8                     l1570:	
  3331  02B8  1FFB               	btfss	___fladd@grs,7
  3332  02B9  2ABB               	goto	u2091
  3333  02BA  2ABC               	goto	u2090
  3334  02BB                     u2091:	
  3335  02BB  2ABD               	goto	l500
  3336  02BC                     u2090:	
  3337  02BC                     l1572:	
  3338  02BC  1470               	bsf	___fladd@b,0
  3339  02BD                     l500:	
  3340  02BD  1C7B               	btfss	___fladd@grs,0
  3341  02BE  2AC0               	goto	u2101
  3342  02BF  2AC1               	goto	u2100
  3343  02C0                     u2101:	
  3344  02C0  2AC4               	goto	l1576
  3345  02C1                     u2100:	
  3346  02C1                     l1574:	
  3347  02C1  1403               	setc
  3348  02C2  0DFB               	rlf	___fladd@grs,f
  3349  02C3  2AC6               	goto	l1578
  3350  02C4                     l1576:	
  3351  02C4  1003               	clrc
  3352  02C5  0DFB               	rlf	___fladd@grs,f
  3353  02C6                     l1578:	
  3354  02C6  087A               	movf	___fladd@bexp,w
  3355  02C7  1903               	btfsc	3,2
  3356  02C8  2ACA               	goto	u2111
  3357  02C9  2ACB               	goto	u2110
  3358  02CA                     u2111:	
  3359  02CA  2ACD               	goto	l1582
  3360  02CB                     u2110:	
  3361  02CB                     l1580:	
  3362  02CB  3001               	movlw	1
  3363  02CC  02FA               	subwf	___fladd@bexp,f
  3364  02CD                     l1582:	
  3365  02CD  1FF2               	btfss	___fladd@b+2,7
  3366  02CE  2AD0               	goto	u2121
  3367  02CF  2AD1               	goto	u2120
  3368  02D0                     u2121:	
  3369  02D0  2AAD               	goto	l1568
  3370  02D1                     u2120:	
  3371  02D1                     l1584:	
  3372  02D1  01F9               	clrf	___fladd@aexp
  3373  02D2                     l1586:	
  3374  02D2  1FFB               	btfss	___fladd@grs,7
  3375  02D3  2AD5               	goto	u2131
  3376  02D4  2AD6               	goto	u2130
  3377  02D5                     u2131:	
  3378  02D5  2AE4               	goto	l1594
  3379  02D6                     u2130:	
  3380  02D6                     l1588:	
  3381  02D6  087B               	movf	___fladd@grs,w
  3382  02D7  397F               	andlw	127
  3383  02D8  1903               	btfsc	3,2
  3384  02D9  2ADB               	goto	u2141
  3385  02DA  2ADC               	goto	u2140
  3386  02DB                     u2141:	
  3387  02DB  2ADF               	goto	l506
  3388  02DC                     u2140:	
  3389  02DC                     l1590:	
  3390  02DC  01F9               	clrf	___fladd@aexp
  3391  02DD  0AF9               	incf	___fladd@aexp,f
  3392  02DE  2AE4               	goto	l1594
  3393  02DF                     l506:	
  3394  02DF  1C70               	btfss	___fladd@b,0
  3395  02E0  2AE2               	goto	u2151
  3396  02E1  2AE3               	goto	u2150
  3397  02E2                     u2151:	
  3398  02E2  2AE4               	goto	l1594
  3399  02E3                     u2150:	
  3400  02E3  2ADC               	goto	l1590
  3401  02E4                     l1594:	
  3402  02E4  0879               	movf	___fladd@aexp,w
  3403  02E5  1903               	btfsc	3,2
  3404  02E6  2AE8               	goto	u2161
  3405  02E7  2AE9               	goto	u2160
  3406  02E8                     u2161:	
  3407  02E8  2B1F               	goto	l509
  3408  02E9                     u2160:	
  3409  02E9                     l1596:	
  3410  02E9  3001               	movlw	1
  3411  02EA  07F0               	addwf	___fladd@b,f
  3412  02EB  3000               	movlw	0
  3413  02EC  1803               	skipnc
  3414  02ED  3001               	movlw	1
  3415  02EE  07F1               	addwf	___fladd@b+1,f
  3416  02EF  3000               	movlw	0
  3417  02F0  1803               	skipnc
  3418  02F1  3001               	movlw	1
  3419  02F2  07F2               	addwf	___fladd@b+2,f
  3420  02F3  3000               	movlw	0
  3421  02F4  1803               	skipnc
  3422  02F5  3001               	movlw	1
  3423  02F6  07F3               	addwf	___fladd@b+3,f
  3424  02F7                     l1598:	
  3425  02F7  1C73               	btfss	___fladd@b+3,0
  3426  02F8  2AFA               	goto	u2171
  3427  02F9  2AFB               	goto	u2170
  3428  02FA                     u2171:	
  3429  02FA  2B1F               	goto	l509
  3430  02FB                     u2170:	
  3431  02FB                     l1600:	
  3432  02FB  0870               	movf	___fladd@b,w
  3433  02FC  1283               	bcf	3,5	;RP0=0, select bank0
  3434  02FD  1303               	bcf	3,6	;RP1=0, select bank0
  3435  02FE  00A0               	movwf	??___fladd
  3436  02FF  0871               	movf	___fladd@b+1,w
  3437  0300  00A1               	movwf	??___fladd+1
  3438  0301  0872               	movf	___fladd@b+2,w
  3439  0302  00A2               	movwf	??___fladd+2
  3440  0303  0873               	movf	___fladd@b+3,w
  3441  0304  00A3               	movwf	??___fladd+3
  3442  0305  3001               	movlw	1
  3443  0306  00A4               	movwf	??___fladd+4
  3444  0307                     u2185:	
  3445  0307  0D23               	rlf	??___fladd+3,w
  3446  0308  0CA3               	rrf	??___fladd+3,f
  3447  0309  0CA2               	rrf	??___fladd+2,f
  3448  030A  0CA1               	rrf	??___fladd+1,f
  3449  030B  0CA0               	rrf	??___fladd,f
  3450  030C                     u2180:	
  3451  030C  0BA4               	decfsz	??___fladd+4,f
  3452  030D  2B07               	goto	u2185
  3453  030E  0823               	movf	??___fladd+3,w
  3454  030F  00F3               	movwf	___fladd@b+3
  3455  0310  0822               	movf	??___fladd+2,w
  3456  0311  00F2               	movwf	___fladd@b+2
  3457  0312  0821               	movf	??___fladd+1,w
  3458  0313  00F1               	movwf	___fladd@b+1
  3459  0314  0820               	movf	??___fladd,w
  3460  0315  00F0               	movwf	___fladd@b
  3461  0316  0A7A               	incf	___fladd@bexp,w
  3462  0317  1903               	btfsc	3,2
  3463  0318  2B1A               	goto	u2191
  3464  0319  2B1B               	goto	u2190
  3465  031A                     u2191:	
  3466  031A  2B1F               	goto	l509
  3467  031B                     u2190:	
  3468  031B                     l1602:	
  3469  031B  3001               	movlw	1
  3470  031C  00A0               	movwf	??___fladd
  3471  031D  0820               	movf	??___fladd,w
  3472  031E  07FA               	addwf	___fladd@bexp,f
  3473  031F                     l509:	
  3474  031F  0A7A               	incf	___fladd@bexp,w
  3475  0320  1903               	btfsc	3,2
  3476  0321  2B23               	goto	u2201
  3477  0322  2B24               	goto	u2200
  3478  0323                     u2201:	
  3479  0323  2B29               	goto	l1606
  3480  0324                     u2200:	
  3481  0324                     l1604:	
  3482  0324  087A               	movf	___fladd@bexp,w
  3483  0325  1D03               	btfss	3,2
  3484  0326  2B28               	goto	u2211
  3485  0327  2B29               	goto	u2210
  3486  0328                     u2211:	
  3487  0328  2B37               	goto	l1612
  3488  0329                     u2210:	
  3489  0329                     l1606:	
  3490  0329  3000               	movlw	0
  3491  032A  00F3               	movwf	___fladd@b+3
  3492  032B  3000               	movlw	0
  3493  032C  00F2               	movwf	___fladd@b+2
  3494  032D  3000               	movlw	0
  3495  032E  00F1               	movwf	___fladd@b+1
  3496  032F  3000               	movlw	0
  3497  0330  00F0               	movwf	___fladd@b
  3498  0331                     l1608:	
  3499  0331  087A               	movf	___fladd@bexp,w
  3500  0332  1D03               	btfss	3,2
  3501  0333  2B35               	goto	u2221
  3502  0334  2B36               	goto	u2220
  3503  0335                     u2221:	
  3504  0335  2B37               	goto	l1612
  3505  0336                     u2220:	
  3506  0336                     l1610:	
  3507  0336  01F8               	clrf	___fladd@signs
  3508  0337                     l1612:	
  3509  0337  1C7A               	btfss	___fladd@bexp,0
  3510  0338  2B3A               	goto	u2231
  3511  0339  2B3B               	goto	u2230
  3512  033A                     u2231:	
  3513  033A  2B3D               	goto	l1616
  3514  033B                     u2230:	
  3515  033B                     l1614:	
  3516  033B  17F2               	bsf	___fladd@b+2,7
  3517  033C  2B43               	goto	l517
  3518  033D                     l1616:	
  3519  033D  307F               	movlw	127
  3520  033E  1283               	bcf	3,5	;RP0=0, select bank0
  3521  033F  1303               	bcf	3,6	;RP1=0, select bank0
  3522  0340  00A0               	movwf	??___fladd
  3523  0341  0820               	movf	??___fladd,w
  3524  0342  05F2               	andwf	___fladd@b+2,f
  3525  0343                     l517:	
  3526  0343  087A               	movf	___fladd@bexp,w
  3527  0344  1283               	bcf	3,5	;RP0=0, select bank0
  3528  0345  1303               	bcf	3,6	;RP1=0, select bank0
  3529  0346  00A0               	movwf	??___fladd
  3530  0347  1003               	clrc
  3531  0348  0C20               	rrf	??___fladd,w
  3532  0349  00A1               	movwf	??___fladd+1
  3533  034A  0821               	movf	??___fladd+1,w
  3534  034B  00F3               	movwf	___fladd@b+3
  3535  034C                     l1618:	
  3536  034C  1FF8               	btfss	___fladd@signs,7
  3537  034D  2B4F               	goto	u2241
  3538  034E  2B50               	goto	u2240
  3539  034F                     u2241:	
  3540  034F  2B51               	goto	l518
  3541  0350                     u2240:	
  3542  0350                     l1620:	
  3543  0350  17F3               	bsf	___fladd@b+3,7
  3544  0351                     l518:	
  3545  0351                     l488:	
  3546  0351  0008               	return
  3547  0352                     __end_of___fladd:	
  3548                           
  3549                           	psect	text6
  3550  0C9F                     __ptext6:	
  3551 ;; *************** function ___flmul *****************
  3552 ;; Defined at:
  3553 ;;		line 8 in file "C:\Program Files (x86)\Microchip\xc8\v2.10\pic\sources\c90\common\sprcmul.c"
  3554 ;; Parameters:    Size  Location     Type
  3555 ;;  b               4   26[BANK0 ] unsigned char 
  3556 ;;  a               4   30[BANK0 ] unsigned char 
  3557 ;; Auto vars:     Size  Location     Type
  3558 ;;  prod            4   46[BANK0 ] struct .
  3559 ;;  grs             4   40[BANK0 ] unsigned long 
  3560 ;;  temp            2   50[BANK0 ] struct .
  3561 ;;  bexp            1   45[BANK0 ] unsigned char 
  3562 ;;  aexp            1   44[BANK0 ] unsigned char 
  3563 ;;  sign            1   39[BANK0 ] unsigned char 
  3564 ;; Return value:  Size  Location     Type
  3565 ;;                  4   26[BANK0 ] unsigned char 
  3566 ;; Registers used:
  3567 ;;		wreg, status,2, status,0, btemp+1, pclath, cstack
  3568 ;; Tracked objects:
  3569 ;;		On entry : 0/0
  3570 ;;		On exit  : 0/0
  3571 ;;		Unchanged: 0/0
  3572 ;; Data sizes:     COMMON   BANK0   BANK1   BANK3   BANK2
  3573 ;;      Params:         0       8       0       0       0
  3574 ;;      Locals:         0      13       0       0       0
  3575 ;;      Temps:          0       5       0       0       0
  3576 ;;      Totals:         0      26       0       0       0
  3577 ;;Total ram usage:       26 bytes
  3578 ;; Hardware stack levels used:    1
  3579 ;; Hardware stack levels required when called:    1
  3580 ;; This function calls:
  3581 ;;		__Umul8_16
  3582 ;; This function is called by:
  3583 ;;		_write_led
  3584 ;; This function uses a non-reentrant model
  3585 ;;
  3586                           
  3587                           
  3588                           ;psect for function ___flmul
  3589  0C9F                     ___flmul:	
  3590  0C9F                     l1814:	
  3591                           ;incstack = 0
  3592                           ; Regs used in ___flmul: [wreg+status,2+status,0+btemp+1+pclath+cstack]
  3593                           
  3594  0C9F  1283               	bcf	3,5	;RP0=0, select bank0
  3595  0CA0  1303               	bcf	3,6	;RP1=0, select bank0
  3596  0CA1  083D               	movf	___flmul@b+3,w
  3597  0CA2  3980               	andlw	128
  3598  0CA3  00C2               	movwf	??___flmul
  3599  0CA4  0842               	movf	??___flmul,w
  3600  0CA5  00C7               	movwf	___flmul@sign
  3601  0CA6                     l1816:	
  3602  0CA6  083D               	movf	___flmul@b+3,w
  3603  0CA7  00C2               	movwf	??___flmul
  3604  0CA8  0742               	addwf	??___flmul,w
  3605  0CA9  00C3               	movwf	??___flmul+1
  3606  0CAA  0843               	movf	??___flmul+1,w
  3607  0CAB  00CD               	movwf	___flmul@bexp
  3608  0CAC                     l1818:	
  3609  0CAC  1FBC               	btfss	___flmul@b+2,7
  3610  0CAD  2CAF               	goto	u2651
  3611  0CAE  2CB0               	goto	u2650
  3612  0CAF                     u2651:	
  3613  0CAF  2CB1               	goto	l1822
  3614  0CB0                     u2650:	
  3615  0CB0                     l1820:	
  3616  0CB0  144D               	bsf	___flmul@bexp,0
  3617  0CB1                     l1822:	
  3618  0CB1  084D               	movf	___flmul@bexp,w
  3619  0CB2  1903               	btfsc	3,2
  3620  0CB3  2CB5               	goto	u2661
  3621  0CB4  2CB6               	goto	u2660
  3622  0CB5                     u2661:	
  3623  0CB5  2CC5               	goto	l1830
  3624  0CB6                     u2660:	
  3625  0CB6                     l1824:	
  3626  0CB6  0A4D               	incf	___flmul@bexp,w
  3627  0CB7  1D03               	btfss	3,2
  3628  0CB8  2CBA               	goto	u2671
  3629  0CB9  2CBB               	goto	u2670
  3630  0CBA                     u2671:	
  3631  0CBA  2CC3               	goto	l1828
  3632  0CBB                     u2670:	
  3633  0CBB                     l1826:	
  3634  0CBB  3000               	movlw	0
  3635  0CBC  00BD               	movwf	___flmul@b+3
  3636  0CBD  3000               	movlw	0
  3637  0CBE  00BC               	movwf	___flmul@b+2
  3638  0CBF  3000               	movlw	0
  3639  0CC0  00BB               	movwf	___flmul@b+1
  3640  0CC1  3000               	movlw	0
  3641  0CC2  00BA               	movwf	___flmul@b
  3642  0CC3                     l1828:	
  3643  0CC3  17BC               	bsf	___flmul@b+2,7
  3644  0CC4  2CCD               	goto	l1832
  3645  0CC5                     l1830:	
  3646  0CC5  3000               	movlw	0
  3647  0CC6  00BD               	movwf	___flmul@b+3
  3648  0CC7  3000               	movlw	0
  3649  0CC8  00BC               	movwf	___flmul@b+2
  3650  0CC9  3000               	movlw	0
  3651  0CCA  00BB               	movwf	___flmul@b+1
  3652  0CCB  3000               	movlw	0
  3653  0CCC  00BA               	movwf	___flmul@b
  3654  0CCD                     l1832:	
  3655  0CCD  0841               	movf	___flmul@a+3,w
  3656  0CCE  3980               	andlw	128
  3657  0CCF  00C2               	movwf	??___flmul
  3658  0CD0  0842               	movf	??___flmul,w
  3659  0CD1  06C7               	xorwf	___flmul@sign,f
  3660  0CD2                     l1834:	
  3661  0CD2  0841               	movf	___flmul@a+3,w
  3662  0CD3  00C2               	movwf	??___flmul
  3663  0CD4  0742               	addwf	??___flmul,w
  3664  0CD5  00C3               	movwf	??___flmul+1
  3665  0CD6  0843               	movf	??___flmul+1,w
  3666  0CD7  00CC               	movwf	___flmul@aexp
  3667  0CD8                     l1836:	
  3668  0CD8  1FC0               	btfss	___flmul@a+2,7
  3669  0CD9  2CDB               	goto	u2681
  3670  0CDA  2CDC               	goto	u2680
  3671  0CDB                     u2681:	
  3672  0CDB  2CDD               	goto	l1840
  3673  0CDC                     u2680:	
  3674  0CDC                     l1838:	
  3675  0CDC  144C               	bsf	___flmul@aexp,0
  3676  0CDD                     l1840:	
  3677  0CDD  084C               	movf	___flmul@aexp,w
  3678  0CDE  1903               	btfsc	3,2
  3679  0CDF  2CE1               	goto	u2691
  3680  0CE0  2CE2               	goto	u2690
  3681  0CE1                     u2691:	
  3682  0CE1  2CF1               	goto	l1848
  3683  0CE2                     u2690:	
  3684  0CE2                     l1842:	
  3685  0CE2  0A4C               	incf	___flmul@aexp,w
  3686  0CE3  1D03               	btfss	3,2
  3687  0CE4  2CE6               	goto	u2701
  3688  0CE5  2CE7               	goto	u2700
  3689  0CE6                     u2701:	
  3690  0CE6  2CEF               	goto	l1846
  3691  0CE7                     u2700:	
  3692  0CE7                     l1844:	
  3693  0CE7  3000               	movlw	0
  3694  0CE8  00C1               	movwf	___flmul@a+3
  3695  0CE9  3000               	movlw	0
  3696  0CEA  00C0               	movwf	___flmul@a+2
  3697  0CEB  3000               	movlw	0
  3698  0CEC  00BF               	movwf	___flmul@a+1
  3699  0CED  3000               	movlw	0
  3700  0CEE  00BE               	movwf	___flmul@a
  3701  0CEF                     l1846:	
  3702  0CEF  17C0               	bsf	___flmul@a+2,7
  3703  0CF0  2CF9               	goto	l1850
  3704  0CF1                     l1848:	
  3705  0CF1  3000               	movlw	0
  3706  0CF2  00C1               	movwf	___flmul@a+3
  3707  0CF3  3000               	movlw	0
  3708  0CF4  00C0               	movwf	___flmul@a+2
  3709  0CF5  3000               	movlw	0
  3710  0CF6  00BF               	movwf	___flmul@a+1
  3711  0CF7  3000               	movlw	0
  3712  0CF8  00BE               	movwf	___flmul@a
  3713  0CF9                     l1850:	
  3714  0CF9  084C               	movf	___flmul@aexp,w
  3715  0CFA  1903               	btfsc	3,2
  3716  0CFB  2CFD               	goto	u2711
  3717  0CFC  2CFE               	goto	u2710
  3718  0CFD                     u2711:	
  3719  0CFD  2D03               	goto	l1854
  3720  0CFE                     u2710:	
  3721  0CFE                     l1852:	
  3722  0CFE  084D               	movf	___flmul@bexp,w
  3723  0CFF  1D03               	btfss	3,2
  3724  0D00  2D02               	goto	u2721
  3725  0D01  2D03               	goto	u2720
  3726  0D02                     u2721:	
  3727  0D02  2D0C               	goto	l1858
  3728  0D03                     u2720:	
  3729  0D03                     l1854:	
  3730  0D03  3000               	movlw	0
  3731  0D04  00BD               	movwf	?___flmul+3
  3732  0D05  3000               	movlw	0
  3733  0D06  00BC               	movwf	?___flmul+2
  3734  0D07  3000               	movlw	0
  3735  0D08  00BB               	movwf	?___flmul+1
  3736  0D09  3000               	movlw	0
  3737  0D0A  00BA               	movwf	?___flmul
  3738  0D0B  2FFF               	goto	l571
  3739  0D0C                     l1858:	
  3740  0D0C  083A               	movf	___flmul@b,w
  3741  0D0D  00C2               	movwf	??___flmul
  3742  0D0E  0842               	movf	??___flmul,w
  3743  0D0F  00F0               	movwf	__Umul8_16@multiplicand
  3744  0D10  0840               	movf	___flmul@a+2,w
  3745  0D11  120A  158A  2171  120A  158A  	fcall	__Umul8_16
  3746  0D16  0871               	movf	?__Umul8_16+1,w
  3747  0D17  1283               	bcf	3,5	;RP0=0, select bank0
  3748  0D18  1303               	bcf	3,6	;RP1=0, select bank0
  3749  0D19  00D3               	movwf	___flmul@temp+1
  3750  0D1A  0870               	movf	?__Umul8_16,w
  3751  0D1B  00D2               	movwf	___flmul@temp
  3752  0D1C                     l1860:	
  3753  0D1C  0852               	movf	___flmul@temp,w
  3754  0D1D  00C2               	movwf	??___flmul
  3755  0D1E  01C3               	clrf	??___flmul+1
  3756  0D1F  01C4               	clrf	??___flmul+2
  3757  0D20  01C5               	clrf	??___flmul+3
  3758  0D21  0845               	movf	??___flmul+3,w
  3759  0D22  00CB               	movwf	___flmul@grs+3
  3760  0D23  0844               	movf	??___flmul+2,w
  3761  0D24  00CA               	movwf	___flmul@grs+2
  3762  0D25  0843               	movf	??___flmul+1,w
  3763  0D26  00C9               	movwf	___flmul@grs+1
  3764  0D27  0842               	movf	??___flmul,w
  3765  0D28  00C8               	movwf	___flmul@grs
  3766  0D29                     l1862:	
  3767  0D29  0853               	movf	___flmul@temp+1,w
  3768  0D2A  00C2               	movwf	??___flmul
  3769  0D2B  01C3               	clrf	??___flmul+1
  3770  0D2C  01C4               	clrf	??___flmul+2
  3771  0D2D  01C5               	clrf	??___flmul+3
  3772  0D2E  0845               	movf	??___flmul+3,w
  3773  0D2F  00D1               	movwf	___flmul@prod+3
  3774  0D30  0844               	movf	??___flmul+2,w
  3775  0D31  00D0               	movwf	___flmul@prod+2
  3776  0D32  0843               	movf	??___flmul+1,w
  3777  0D33  00CF               	movwf	___flmul@prod+1
  3778  0D34  0842               	movf	??___flmul,w
  3779  0D35  00CE               	movwf	___flmul@prod
  3780  0D36  083B               	movf	___flmul@b+1,w
  3781  0D37  00C2               	movwf	??___flmul
  3782  0D38  0842               	movf	??___flmul,w
  3783  0D39  00F0               	movwf	__Umul8_16@multiplicand
  3784  0D3A  083F               	movf	___flmul@a+1,w
  3785  0D3B  120A  158A  2171  120A  158A  	fcall	__Umul8_16
  3786  0D40  0871               	movf	?__Umul8_16+1,w
  3787  0D41  1283               	bcf	3,5	;RP0=0, select bank0
  3788  0D42  1303               	bcf	3,6	;RP1=0, select bank0
  3789  0D43  00D3               	movwf	___flmul@temp+1
  3790  0D44  0870               	movf	?__Umul8_16,w
  3791  0D45  00D2               	movwf	___flmul@temp
  3792  0D46                     l1864:	
  3793  0D46  0852               	movf	___flmul@temp,w
  3794  0D47  00C2               	movwf	??___flmul
  3795  0D48  01C3               	clrf	??___flmul+1
  3796  0D49  01C4               	clrf	??___flmul+2
  3797  0D4A  01C5               	clrf	??___flmul+3
  3798  0D4B  0842               	movf	??___flmul,w
  3799  0D4C  07C8               	addwf	___flmul@grs,f
  3800  0D4D  0843               	movf	??___flmul+1,w
  3801  0D4E  1103               	clrz
  3802  0D4F  1803               	skipnc
  3803  0D50  3E01               	addlw	1
  3804  0D51  1903               	skipnz
  3805  0D52  2D54               	goto	u2731
  3806  0D53  07C9               	addwf	___flmul@grs+1,f
  3807  0D54                     u2731:	
  3808  0D54  0844               	movf	??___flmul+2,w
  3809  0D55  1103               	clrz
  3810  0D56  1803               	skipnc
  3811  0D57  3E01               	addlw	1
  3812  0D58  1903               	skipnz
  3813  0D59  2D5B               	goto	u2732
  3814  0D5A  07CA               	addwf	___flmul@grs+2,f
  3815  0D5B                     u2732:	
  3816  0D5B  0845               	movf	??___flmul+3,w
  3817  0D5C  1103               	clrz
  3818  0D5D  1803               	skipnc
  3819  0D5E  3E01               	addlw	1
  3820  0D5F  1903               	skipnz
  3821  0D60  2D62               	goto	u2733
  3822  0D61  07CB               	addwf	___flmul@grs+3,f
  3823  0D62                     u2733:	
  3824  0D62                     l1866:	
  3825  0D62  0853               	movf	___flmul@temp+1,w
  3826  0D63  00C2               	movwf	??___flmul
  3827  0D64  01C3               	clrf	??___flmul+1
  3828  0D65  01C4               	clrf	??___flmul+2
  3829  0D66  01C5               	clrf	??___flmul+3
  3830  0D67  0842               	movf	??___flmul,w
  3831  0D68  07CE               	addwf	___flmul@prod,f
  3832  0D69  0843               	movf	??___flmul+1,w
  3833  0D6A  1103               	clrz
  3834  0D6B  1803               	skipnc
  3835  0D6C  3E01               	addlw	1
  3836  0D6D  1903               	skipnz
  3837  0D6E  2D70               	goto	u2741
  3838  0D6F  07CF               	addwf	___flmul@prod+1,f
  3839  0D70                     u2741:	
  3840  0D70  0844               	movf	??___flmul+2,w
  3841  0D71  1103               	clrz
  3842  0D72  1803               	skipnc
  3843  0D73  3E01               	addlw	1
  3844  0D74  1903               	skipnz
  3845  0D75  2D77               	goto	u2742
  3846  0D76  07D0               	addwf	___flmul@prod+2,f
  3847  0D77                     u2742:	
  3848  0D77  0845               	movf	??___flmul+3,w
  3849  0D78  1103               	clrz
  3850  0D79  1803               	skipnc
  3851  0D7A  3E01               	addlw	1
  3852  0D7B  1903               	skipnz
  3853  0D7C  2D7E               	goto	u2743
  3854  0D7D  07D1               	addwf	___flmul@prod+3,f
  3855  0D7E                     u2743:	
  3856  0D7E  083C               	movf	___flmul@b+2,w
  3857  0D7F  00C2               	movwf	??___flmul
  3858  0D80  0842               	movf	??___flmul,w
  3859  0D81  00F0               	movwf	__Umul8_16@multiplicand
  3860  0D82  083E               	movf	___flmul@a,w
  3861  0D83  120A  158A  2171  120A  158A  	fcall	__Umul8_16
  3862  0D88  0871               	movf	?__Umul8_16+1,w
  3863  0D89  1283               	bcf	3,5	;RP0=0, select bank0
  3864  0D8A  1303               	bcf	3,6	;RP1=0, select bank0
  3865  0D8B  00D3               	movwf	___flmul@temp+1
  3866  0D8C  0870               	movf	?__Umul8_16,w
  3867  0D8D  00D2               	movwf	___flmul@temp
  3868  0D8E                     l1868:	
  3869  0D8E  0852               	movf	___flmul@temp,w
  3870  0D8F  00C2               	movwf	??___flmul
  3871  0D90  01C3               	clrf	??___flmul+1
  3872  0D91  01C4               	clrf	??___flmul+2
  3873  0D92  01C5               	clrf	??___flmul+3
  3874  0D93  0842               	movf	??___flmul,w
  3875  0D94  07C8               	addwf	___flmul@grs,f
  3876  0D95  0843               	movf	??___flmul+1,w
  3877  0D96  1103               	clrz
  3878  0D97  1803               	skipnc
  3879  0D98  3E01               	addlw	1
  3880  0D99  1903               	skipnz
  3881  0D9A  2D9C               	goto	u2751
  3882  0D9B  07C9               	addwf	___flmul@grs+1,f
  3883  0D9C                     u2751:	
  3884  0D9C  0844               	movf	??___flmul+2,w
  3885  0D9D  1103               	clrz
  3886  0D9E  1803               	skipnc
  3887  0D9F  3E01               	addlw	1
  3888  0DA0  1903               	skipnz
  3889  0DA1  2DA3               	goto	u2752
  3890  0DA2  07CA               	addwf	___flmul@grs+2,f
  3891  0DA3                     u2752:	
  3892  0DA3  0845               	movf	??___flmul+3,w
  3893  0DA4  1103               	clrz
  3894  0DA5  1803               	skipnc
  3895  0DA6  3E01               	addlw	1
  3896  0DA7  1903               	skipnz
  3897  0DA8  2DAA               	goto	u2753
  3898  0DA9  07CB               	addwf	___flmul@grs+3,f
  3899  0DAA                     u2753:	
  3900  0DAA                     l1870:	
  3901  0DAA  0853               	movf	___flmul@temp+1,w
  3902  0DAB  00C2               	movwf	??___flmul
  3903  0DAC  01C3               	clrf	??___flmul+1
  3904  0DAD  01C4               	clrf	??___flmul+2
  3905  0DAE  01C5               	clrf	??___flmul+3
  3906  0DAF  0842               	movf	??___flmul,w
  3907  0DB0  07CE               	addwf	___flmul@prod,f
  3908  0DB1  0843               	movf	??___flmul+1,w
  3909  0DB2  1103               	clrz
  3910  0DB3  1803               	skipnc
  3911  0DB4  3E01               	addlw	1
  3912  0DB5  1903               	skipnz
  3913  0DB6  2DB8               	goto	u2761
  3914  0DB7  07CF               	addwf	___flmul@prod+1,f
  3915  0DB8                     u2761:	
  3916  0DB8  0844               	movf	??___flmul+2,w
  3917  0DB9  1103               	clrz
  3918  0DBA  1803               	skipnc
  3919  0DBB  3E01               	addlw	1
  3920  0DBC  1903               	skipnz
  3921  0DBD  2DBF               	goto	u2762
  3922  0DBE  07D0               	addwf	___flmul@prod+2,f
  3923  0DBF                     u2762:	
  3924  0DBF  0845               	movf	??___flmul+3,w
  3925  0DC0  1103               	clrz
  3926  0DC1  1803               	skipnc
  3927  0DC2  3E01               	addlw	1
  3928  0DC3  1903               	skipnz
  3929  0DC4  2DC6               	goto	u2763
  3930  0DC5  07D1               	addwf	___flmul@prod+3,f
  3931  0DC6                     u2763:	
  3932  0DC6                     l1872:	
  3933  0DC6  3008               	movlw	8
  3934  0DC7  00C2               	movwf	??___flmul
  3935  0DC8                     u2775:	
  3936  0DC8  1003               	clrc
  3937  0DC9  0DC8               	rlf	___flmul@grs,f
  3938  0DCA  0DC9               	rlf	___flmul@grs+1,f
  3939  0DCB  0DCA               	rlf	___flmul@grs+2,f
  3940  0DCC  0DCB               	rlf	___flmul@grs+3,f
  3941  0DCD  0BC2               	decfsz	??___flmul,f
  3942  0DCE  2DC8               	goto	u2775
  3943  0DCF                     l1874:	
  3944  0DCF  083B               	movf	___flmul@b+1,w
  3945  0DD0  00C2               	movwf	??___flmul
  3946  0DD1  0842               	movf	??___flmul,w
  3947  0DD2  00F0               	movwf	__Umul8_16@multiplicand
  3948  0DD3  083E               	movf	___flmul@a,w
  3949  0DD4  120A  158A  2171  120A  158A  	fcall	__Umul8_16
  3950  0DD9  0871               	movf	?__Umul8_16+1,w
  3951  0DDA  1283               	bcf	3,5	;RP0=0, select bank0
  3952  0DDB  1303               	bcf	3,6	;RP1=0, select bank0
  3953  0DDC  00D3               	movwf	___flmul@temp+1
  3954  0DDD  0870               	movf	?__Umul8_16,w
  3955  0DDE  00D2               	movwf	___flmul@temp
  3956  0DDF                     l1876:	
  3957  0DDF  0852               	movf	___flmul@temp,w
  3958  0DE0  00C2               	movwf	??___flmul
  3959  0DE1  0853               	movf	___flmul@temp+1,w
  3960  0DE2  00C3               	movwf	??___flmul+1
  3961  0DE3  01C4               	clrf	??___flmul+2
  3962  0DE4  01C5               	clrf	??___flmul+3
  3963  0DE5  0842               	movf	??___flmul,w
  3964  0DE6  07C8               	addwf	___flmul@grs,f
  3965  0DE7  0843               	movf	??___flmul+1,w
  3966  0DE8  1103               	clrz
  3967  0DE9  1803               	skipnc
  3968  0DEA  3E01               	addlw	1
  3969  0DEB  1903               	skipnz
  3970  0DEC  2DEE               	goto	u2781
  3971  0DED  07C9               	addwf	___flmul@grs+1,f
  3972  0DEE                     u2781:	
  3973  0DEE  0844               	movf	??___flmul+2,w
  3974  0DEF  1103               	clrz
  3975  0DF0  1803               	skipnc
  3976  0DF1  3E01               	addlw	1
  3977  0DF2  1903               	skipnz
  3978  0DF3  2DF5               	goto	u2782
  3979  0DF4  07CA               	addwf	___flmul@grs+2,f
  3980  0DF5                     u2782:	
  3981  0DF5  0845               	movf	??___flmul+3,w
  3982  0DF6  1103               	clrz
  3983  0DF7  1803               	skipnc
  3984  0DF8  3E01               	addlw	1
  3985  0DF9  1903               	skipnz
  3986  0DFA  2DFC               	goto	u2783
  3987  0DFB  07CB               	addwf	___flmul@grs+3,f
  3988  0DFC                     u2783:	
  3989  0DFC                     l1878:	
  3990  0DFC  083A               	movf	___flmul@b,w
  3991  0DFD  00C2               	movwf	??___flmul
  3992  0DFE  0842               	movf	??___flmul,w
  3993  0DFF  00F0               	movwf	__Umul8_16@multiplicand
  3994  0E00  083F               	movf	___flmul@a+1,w
  3995  0E01  120A  158A  2171  120A  158A  	fcall	__Umul8_16
  3996  0E06  0871               	movf	?__Umul8_16+1,w
  3997  0E07  1283               	bcf	3,5	;RP0=0, select bank0
  3998  0E08  1303               	bcf	3,6	;RP1=0, select bank0
  3999  0E09  00D3               	movwf	___flmul@temp+1
  4000  0E0A  0870               	movf	?__Umul8_16,w
  4001  0E0B  00D2               	movwf	___flmul@temp
  4002  0E0C                     l1880:	
  4003  0E0C  0852               	movf	___flmul@temp,w
  4004  0E0D  00C2               	movwf	??___flmul
  4005  0E0E  0853               	movf	___flmul@temp+1,w
  4006  0E0F  00C3               	movwf	??___flmul+1
  4007  0E10  01C4               	clrf	??___flmul+2
  4008  0E11  01C5               	clrf	??___flmul+3
  4009  0E12  0842               	movf	??___flmul,w
  4010  0E13  07C8               	addwf	___flmul@grs,f
  4011  0E14  0843               	movf	??___flmul+1,w
  4012  0E15  1103               	clrz
  4013  0E16  1803               	skipnc
  4014  0E17  3E01               	addlw	1
  4015  0E18  1903               	skipnz
  4016  0E19  2E1B               	goto	u2791
  4017  0E1A  07C9               	addwf	___flmul@grs+1,f
  4018  0E1B                     u2791:	
  4019  0E1B  0844               	movf	??___flmul+2,w
  4020  0E1C  1103               	clrz
  4021  0E1D  1803               	skipnc
  4022  0E1E  3E01               	addlw	1
  4023  0E1F  1903               	skipnz
  4024  0E20  2E22               	goto	u2792
  4025  0E21  07CA               	addwf	___flmul@grs+2,f
  4026  0E22                     u2792:	
  4027  0E22  0845               	movf	??___flmul+3,w
  4028  0E23  1103               	clrz
  4029  0E24  1803               	skipnc
  4030  0E25  3E01               	addlw	1
  4031  0E26  1903               	skipnz
  4032  0E27  2E29               	goto	u2793
  4033  0E28  07CB               	addwf	___flmul@grs+3,f
  4034  0E29                     u2793:	
  4035  0E29                     l1882:	
  4036  0E29  3008               	movlw	8
  4037  0E2A  00C2               	movwf	??___flmul
  4038  0E2B                     u2805:	
  4039  0E2B  1003               	clrc
  4040  0E2C  0DC8               	rlf	___flmul@grs,f
  4041  0E2D  0DC9               	rlf	___flmul@grs+1,f
  4042  0E2E  0DCA               	rlf	___flmul@grs+2,f
  4043  0E2F  0DCB               	rlf	___flmul@grs+3,f
  4044  0E30  0BC2               	decfsz	??___flmul,f
  4045  0E31  2E2B               	goto	u2805
  4046  0E32  083A               	movf	___flmul@b,w
  4047  0E33  00C2               	movwf	??___flmul
  4048  0E34  0842               	movf	??___flmul,w
  4049  0E35  00F0               	movwf	__Umul8_16@multiplicand
  4050  0E36  083E               	movf	___flmul@a,w
  4051  0E37  120A  158A  2171  120A  158A  	fcall	__Umul8_16
  4052  0E3C  0871               	movf	?__Umul8_16+1,w
  4053  0E3D  1283               	bcf	3,5	;RP0=0, select bank0
  4054  0E3E  1303               	bcf	3,6	;RP1=0, select bank0
  4055  0E3F  00D3               	movwf	___flmul@temp+1
  4056  0E40  0870               	movf	?__Umul8_16,w
  4057  0E41  00D2               	movwf	___flmul@temp
  4058  0E42                     l1884:	
  4059  0E42  0852               	movf	___flmul@temp,w
  4060  0E43  00C2               	movwf	??___flmul
  4061  0E44  0853               	movf	___flmul@temp+1,w
  4062  0E45  00C3               	movwf	??___flmul+1
  4063  0E46  01C4               	clrf	??___flmul+2
  4064  0E47  01C5               	clrf	??___flmul+3
  4065  0E48  0842               	movf	??___flmul,w
  4066  0E49  07C8               	addwf	___flmul@grs,f
  4067  0E4A  0843               	movf	??___flmul+1,w
  4068  0E4B  1103               	clrz
  4069  0E4C  1803               	skipnc
  4070  0E4D  3E01               	addlw	1
  4071  0E4E  1903               	skipnz
  4072  0E4F  2E51               	goto	u2811
  4073  0E50  07C9               	addwf	___flmul@grs+1,f
  4074  0E51                     u2811:	
  4075  0E51  0844               	movf	??___flmul+2,w
  4076  0E52  1103               	clrz
  4077  0E53  1803               	skipnc
  4078  0E54  3E01               	addlw	1
  4079  0E55  1903               	skipnz
  4080  0E56  2E58               	goto	u2812
  4081  0E57  07CA               	addwf	___flmul@grs+2,f
  4082  0E58                     u2812:	
  4083  0E58  0845               	movf	??___flmul+3,w
  4084  0E59  1103               	clrz
  4085  0E5A  1803               	skipnc
  4086  0E5B  3E01               	addlw	1
  4087  0E5C  1903               	skipnz
  4088  0E5D  2E5F               	goto	u2813
  4089  0E5E  07CB               	addwf	___flmul@grs+3,f
  4090  0E5F                     u2813:	
  4091  0E5F                     l1886:	
  4092  0E5F  083B               	movf	___flmul@b+1,w
  4093  0E60  00C2               	movwf	??___flmul
  4094  0E61  0842               	movf	??___flmul,w
  4095  0E62  00F0               	movwf	__Umul8_16@multiplicand
  4096  0E63  0840               	movf	___flmul@a+2,w
  4097  0E64  120A  158A  2171  120A  158A  	fcall	__Umul8_16
  4098  0E69  0871               	movf	?__Umul8_16+1,w
  4099  0E6A  1283               	bcf	3,5	;RP0=0, select bank0
  4100  0E6B  1303               	bcf	3,6	;RP1=0, select bank0
  4101  0E6C  00D3               	movwf	___flmul@temp+1
  4102  0E6D  0870               	movf	?__Umul8_16,w
  4103  0E6E  00D2               	movwf	___flmul@temp
  4104  0E6F  0852               	movf	___flmul@temp,w
  4105  0E70  00C2               	movwf	??___flmul
  4106  0E71  0853               	movf	___flmul@temp+1,w
  4107  0E72  00C3               	movwf	??___flmul+1
  4108  0E73  01C4               	clrf	??___flmul+2
  4109  0E74  01C5               	clrf	??___flmul+3
  4110  0E75  0842               	movf	??___flmul,w
  4111  0E76  07CE               	addwf	___flmul@prod,f
  4112  0E77  0843               	movf	??___flmul+1,w
  4113  0E78  1103               	clrz
  4114  0E79  1803               	skipnc
  4115  0E7A  3E01               	addlw	1
  4116  0E7B  1903               	skipnz
  4117  0E7C  2E7E               	goto	u2821
  4118  0E7D  07CF               	addwf	___flmul@prod+1,f
  4119  0E7E                     u2821:	
  4120  0E7E  0844               	movf	??___flmul+2,w
  4121  0E7F  1103               	clrz
  4122  0E80  1803               	skipnc
  4123  0E81  3E01               	addlw	1
  4124  0E82  1903               	skipnz
  4125  0E83  2E85               	goto	u2822
  4126  0E84  07D0               	addwf	___flmul@prod+2,f
  4127  0E85                     u2822:	
  4128  0E85  0845               	movf	??___flmul+3,w
  4129  0E86  1103               	clrz
  4130  0E87  1803               	skipnc
  4131  0E88  3E01               	addlw	1
  4132  0E89  1903               	skipnz
  4133  0E8A  2E8C               	goto	u2823
  4134  0E8B  07D1               	addwf	___flmul@prod+3,f
  4135  0E8C                     u2823:	
  4136  0E8C                     l1888:	
  4137  0E8C  083C               	movf	___flmul@b+2,w
  4138  0E8D  00C2               	movwf	??___flmul
  4139  0E8E  0842               	movf	??___flmul,w
  4140  0E8F  00F0               	movwf	__Umul8_16@multiplicand
  4141  0E90  083F               	movf	___flmul@a+1,w
  4142  0E91  120A  158A  2171  120A  158A  	fcall	__Umul8_16
  4143  0E96  0871               	movf	?__Umul8_16+1,w
  4144  0E97  1283               	bcf	3,5	;RP0=0, select bank0
  4145  0E98  1303               	bcf	3,6	;RP1=0, select bank0
  4146  0E99  00D3               	movwf	___flmul@temp+1
  4147  0E9A  0870               	movf	?__Umul8_16,w
  4148  0E9B  00D2               	movwf	___flmul@temp
  4149  0E9C                     l1890:	
  4150  0E9C  0852               	movf	___flmul@temp,w
  4151  0E9D  00C2               	movwf	??___flmul
  4152  0E9E  0853               	movf	___flmul@temp+1,w
  4153  0E9F  00C3               	movwf	??___flmul+1
  4154  0EA0  01C4               	clrf	??___flmul+2
  4155  0EA1  01C5               	clrf	??___flmul+3
  4156  0EA2  0842               	movf	??___flmul,w
  4157  0EA3  07CE               	addwf	___flmul@prod,f
  4158  0EA4  0843               	movf	??___flmul+1,w
  4159  0EA5  1103               	clrz
  4160  0EA6  1803               	skipnc
  4161  0EA7  3E01               	addlw	1
  4162  0EA8  1903               	skipnz
  4163  0EA9  2EAB               	goto	u2831
  4164  0EAA  07CF               	addwf	___flmul@prod+1,f
  4165  0EAB                     u2831:	
  4166  0EAB  0844               	movf	??___flmul+2,w
  4167  0EAC  1103               	clrz
  4168  0EAD  1803               	skipnc
  4169  0EAE  3E01               	addlw	1
  4170  0EAF  1903               	skipnz
  4171  0EB0  2EB2               	goto	u2832
  4172  0EB1  07D0               	addwf	___flmul@prod+2,f
  4173  0EB2                     u2832:	
  4174  0EB2  0845               	movf	??___flmul+3,w
  4175  0EB3  1103               	clrz
  4176  0EB4  1803               	skipnc
  4177  0EB5  3E01               	addlw	1
  4178  0EB6  1903               	skipnz
  4179  0EB7  2EB9               	goto	u2833
  4180  0EB8  07D1               	addwf	___flmul@prod+3,f
  4181  0EB9                     u2833:	
  4182  0EB9  083C               	movf	___flmul@b+2,w
  4183  0EBA  00C2               	movwf	??___flmul
  4184  0EBB  0842               	movf	??___flmul,w
  4185  0EBC  00F0               	movwf	__Umul8_16@multiplicand
  4186  0EBD  0840               	movf	___flmul@a+2,w
  4187  0EBE  120A  158A  2171  120A  158A  	fcall	__Umul8_16
  4188  0EC3  0871               	movf	?__Umul8_16+1,w
  4189  0EC4  1283               	bcf	3,5	;RP0=0, select bank0
  4190  0EC5  1303               	bcf	3,6	;RP1=0, select bank0
  4191  0EC6  00D3               	movwf	___flmul@temp+1
  4192  0EC7  0870               	movf	?__Umul8_16,w
  4193  0EC8  00D2               	movwf	___flmul@temp
  4194  0EC9                     l1892:	
  4195  0EC9  0852               	movf	___flmul@temp,w
  4196  0ECA  00C2               	movwf	??___flmul
  4197  0ECB  0853               	movf	___flmul@temp+1,w
  4198  0ECC  00C3               	movwf	??___flmul+1
  4199  0ECD  01C4               	clrf	??___flmul+2
  4200  0ECE  01C5               	clrf	??___flmul+3
  4201  0ECF  3008               	movlw	8
  4202  0ED0                     u2845:	
  4203  0ED0  1003               	clrc
  4204  0ED1  0DC2               	rlf	??___flmul,f
  4205  0ED2  0DC3               	rlf	??___flmul+1,f
  4206  0ED3  0DC4               	rlf	??___flmul+2,f
  4207  0ED4  0DC5               	rlf	??___flmul+3,f
  4208  0ED5                     u2840:	
  4209  0ED5  3EFF               	addlw	-1
  4210  0ED6  1D03               	skipz
  4211  0ED7  2ED0               	goto	u2845
  4212  0ED8  0842               	movf	??___flmul,w
  4213  0ED9  07CE               	addwf	___flmul@prod,f
  4214  0EDA  0843               	movf	??___flmul+1,w
  4215  0EDB  1103               	clrz
  4216  0EDC  1803               	skipnc
  4217  0EDD  3E01               	addlw	1
  4218  0EDE  1903               	skipnz
  4219  0EDF  2EE1               	goto	u2851
  4220  0EE0  07CF               	addwf	___flmul@prod+1,f
  4221  0EE1                     u2851:	
  4222  0EE1  0844               	movf	??___flmul+2,w
  4223  0EE2  1103               	clrz
  4224  0EE3  1803               	skipnc
  4225  0EE4  3E01               	addlw	1
  4226  0EE5  1903               	skipnz
  4227  0EE6  2EE8               	goto	u2852
  4228  0EE7  07D0               	addwf	___flmul@prod+2,f
  4229  0EE8                     u2852:	
  4230  0EE8  0845               	movf	??___flmul+3,w
  4231  0EE9  1103               	clrz
  4232  0EEA  1803               	skipnc
  4233  0EEB  3E01               	addlw	1
  4234  0EEC  1903               	skipnz
  4235  0EED  2EEF               	goto	u2853
  4236  0EEE  07D1               	addwf	___flmul@prod+3,f
  4237  0EEF                     u2853:	
  4238  0EEF                     l1894:	
  4239  0EEF  0848               	movf	___flmul@grs,w
  4240  0EF0  00C2               	movwf	??___flmul
  4241  0EF1  0849               	movf	___flmul@grs+1,w
  4242  0EF2  00C3               	movwf	??___flmul+1
  4243  0EF3  084A               	movf	___flmul@grs+2,w
  4244  0EF4  00C4               	movwf	??___flmul+2
  4245  0EF5  084B               	movf	___flmul@grs+3,w
  4246  0EF6  00C5               	movwf	??___flmul+3
  4247  0EF7  3018               	movlw	24
  4248  0EF8                     u2865:	
  4249  0EF8  1003               	clrc
  4250  0EF9  0CC5               	rrf	??___flmul+3,f
  4251  0EFA  0CC4               	rrf	??___flmul+2,f
  4252  0EFB  0CC3               	rrf	??___flmul+1,f
  4253  0EFC  0CC2               	rrf	??___flmul,f
  4254  0EFD                     u2860:	
  4255  0EFD  3EFF               	addlw	-1
  4256  0EFE  1D03               	skipz
  4257  0EFF  2EF8               	goto	u2865
  4258  0F00  0842               	movf	??___flmul,w
  4259  0F01  07CE               	addwf	___flmul@prod,f
  4260  0F02  0843               	movf	??___flmul+1,w
  4261  0F03  1103               	clrz
  4262  0F04  1803               	skipnc
  4263  0F05  3E01               	addlw	1
  4264  0F06  1903               	skipnz
  4265  0F07  2F09               	goto	u2871
  4266  0F08  07CF               	addwf	___flmul@prod+1,f
  4267  0F09                     u2871:	
  4268  0F09  0844               	movf	??___flmul+2,w
  4269  0F0A  1103               	clrz
  4270  0F0B  1803               	skipnc
  4271  0F0C  3E01               	addlw	1
  4272  0F0D  1903               	skipnz
  4273  0F0E  2F10               	goto	u2872
  4274  0F0F  07D0               	addwf	___flmul@prod+2,f
  4275  0F10                     u2872:	
  4276  0F10  0845               	movf	??___flmul+3,w
  4277  0F11  1103               	clrz
  4278  0F12  1803               	skipnc
  4279  0F13  3E01               	addlw	1
  4280  0F14  1903               	skipnz
  4281  0F15  2F17               	goto	u2873
  4282  0F16  07D1               	addwf	___flmul@prod+3,f
  4283  0F17                     u2873:	
  4284  0F17                     l1896:	
  4285  0F17  3008               	movlw	8
  4286  0F18  00C2               	movwf	??___flmul
  4287  0F19                     u2885:	
  4288  0F19  1003               	clrc
  4289  0F1A  0DC8               	rlf	___flmul@grs,f
  4290  0F1B  0DC9               	rlf	___flmul@grs+1,f
  4291  0F1C  0DCA               	rlf	___flmul@grs+2,f
  4292  0F1D  0DCB               	rlf	___flmul@grs+3,f
  4293  0F1E  0BC2               	decfsz	??___flmul,f
  4294  0F1F  2F19               	goto	u2885
  4295  0F20                     l1898:	
  4296  0F20  084D               	movf	___flmul@bexp,w
  4297  0F21  074C               	addwf	___flmul@aexp,w
  4298  0F22  00C2               	movwf	??___flmul
  4299  0F23  01C3               	clrf	??___flmul+1
  4300  0F24  0DC3               	rlf	??___flmul+1,f
  4301  0F25  0842               	movf	??___flmul,w
  4302  0F26  3E82               	addlw	130
  4303  0F27  00D2               	movwf	___flmul@temp
  4304  0F28  0843               	movf	??___flmul+1,w
  4305  0F29  1803               	skipnc
  4306  0F2A  3E01               	addlw	1
  4307  0F2B  3EFF               	addlw	255
  4308  0F2C  00D3               	movwf	___flmul@temp+1
  4309  0F2D  2F4B               	goto	l1910
  4310  0F2E                     l1900:	
  4311  0F2E  3001               	movlw	1
  4312  0F2F  00C2               	movwf	??___flmul
  4313  0F30                     u2895:	
  4314  0F30  1003               	clrc
  4315  0F31  0DCE               	rlf	___flmul@prod,f
  4316  0F32  0DCF               	rlf	___flmul@prod+1,f
  4317  0F33  0DD0               	rlf	___flmul@prod+2,f
  4318  0F34  0DD1               	rlf	___flmul@prod+3,f
  4319  0F35  0BC2               	decfsz	??___flmul,f
  4320  0F36  2F30               	goto	u2895
  4321  0F37                     l1902:	
  4322  0F37  1FCB               	btfss	___flmul@grs+3,7
  4323  0F38  2F3A               	goto	u2901
  4324  0F39  2F3B               	goto	u2900
  4325  0F3A                     u2901:	
  4326  0F3A  2F3C               	goto	l1906
  4327  0F3B                     u2900:	
  4328  0F3B                     l1904:	
  4329  0F3B  144E               	bsf	___flmul@prod,0
  4330  0F3C                     l1906:	
  4331  0F3C  3001               	movlw	1
  4332  0F3D  00C2               	movwf	??___flmul
  4333  0F3E                     u2915:	
  4334  0F3E  1003               	clrc
  4335  0F3F  0DC8               	rlf	___flmul@grs,f
  4336  0F40  0DC9               	rlf	___flmul@grs+1,f
  4337  0F41  0DCA               	rlf	___flmul@grs+2,f
  4338  0F42  0DCB               	rlf	___flmul@grs+3,f
  4339  0F43  0BC2               	decfsz	??___flmul,f
  4340  0F44  2F3E               	goto	u2915
  4341  0F45                     l1908:	
  4342  0F45  30FF               	movlw	255
  4343  0F46  07D2               	addwf	___flmul@temp,f
  4344  0F47  1803               	skipnc
  4345  0F48  0AD3               	incf	___flmul@temp+1,f
  4346  0F49  30FF               	movlw	255
  4347  0F4A  07D3               	addwf	___flmul@temp+1,f
  4348  0F4B                     l1910:	
  4349  0F4B  1FD0               	btfss	___flmul@prod+2,7
  4350  0F4C  2F4E               	goto	u2921
  4351  0F4D  2F4F               	goto	u2920
  4352  0F4E                     u2921:	
  4353  0F4E  2F2E               	goto	l1900
  4354  0F4F                     u2920:	
  4355  0F4F                     l1912:	
  4356  0F4F  01CC               	clrf	___flmul@aexp
  4357  0F50                     l1914:	
  4358  0F50  1FCB               	btfss	___flmul@grs+3,7
  4359  0F51  2F53               	goto	u2931
  4360  0F52  2F54               	goto	u2930
  4361  0F53                     u2931:	
  4362  0F53  2F70               	goto	l1922
  4363  0F54                     u2930:	
  4364  0F54                     l1916:	
  4365  0F54  30FF               	movlw	255
  4366  0F55  0548               	andwf	___flmul@grs,w
  4367  0F56  00C2               	movwf	??___flmul
  4368  0F57  30FF               	movlw	255
  4369  0F58  0549               	andwf	___flmul@grs+1,w
  4370  0F59  00C3               	movwf	??___flmul+1
  4371  0F5A  30FF               	movlw	255
  4372  0F5B  054A               	andwf	___flmul@grs+2,w
  4373  0F5C  00C4               	movwf	??___flmul+2
  4374  0F5D  307F               	movlw	127
  4375  0F5E  054B               	andwf	___flmul@grs+3,w
  4376  0F5F  00C5               	movwf	??___flmul+3
  4377  0F60  0845               	movf	??___flmul+3,w
  4378  0F61  0444               	iorwf	??___flmul+2,w
  4379  0F62  0443               	iorwf	??___flmul+1,w
  4380  0F63  0442               	iorwf	??___flmul,w
  4381  0F64  1903               	skipnz
  4382  0F65  2F67               	goto	u2941
  4383  0F66  2F68               	goto	u2940
  4384  0F67                     u2941:	
  4385  0F67  2F6B               	goto	l577
  4386  0F68                     u2940:	
  4387  0F68                     l1918:	
  4388  0F68  01CC               	clrf	___flmul@aexp
  4389  0F69  0ACC               	incf	___flmul@aexp,f
  4390  0F6A  2F70               	goto	l1922
  4391  0F6B                     l577:	
  4392  0F6B  1C4E               	btfss	___flmul@prod,0
  4393  0F6C  2F6E               	goto	u2951
  4394  0F6D  2F6F               	goto	u2950
  4395  0F6E                     u2951:	
  4396  0F6E  2F70               	goto	l1922
  4397  0F6F                     u2950:	
  4398  0F6F  2F68               	goto	l1918
  4399  0F70                     l1922:	
  4400  0F70  084C               	movf	___flmul@aexp,w
  4401  0F71  1903               	btfsc	3,2
  4402  0F72  2F74               	goto	u2961
  4403  0F73  2F75               	goto	u2960
  4404  0F74                     u2961:	
  4405  0F74  2FA6               	goto	l1932
  4406  0F75                     u2960:	
  4407  0F75                     l1924:	
  4408  0F75  3001               	movlw	1
  4409  0F76  07CE               	addwf	___flmul@prod,f
  4410  0F77  3000               	movlw	0
  4411  0F78  1803               	skipnc
  4412  0F79  3001               	movlw	1
  4413  0F7A  07CF               	addwf	___flmul@prod+1,f
  4414  0F7B  3000               	movlw	0
  4415  0F7C  1803               	skipnc
  4416  0F7D  3001               	movlw	1
  4417  0F7E  07D0               	addwf	___flmul@prod+2,f
  4418  0F7F  3000               	movlw	0
  4419  0F80  1803               	skipnc
  4420  0F81  3001               	movlw	1
  4421  0F82  07D1               	addwf	___flmul@prod+3,f
  4422  0F83                     l1926:	
  4423  0F83  1C51               	btfss	___flmul@prod+3,0
  4424  0F84  2F86               	goto	u2971
  4425  0F85  2F87               	goto	u2970
  4426  0F86                     u2971:	
  4427  0F86  2FA6               	goto	l1932
  4428  0F87                     u2970:	
  4429  0F87                     l1928:	
  4430  0F87  084E               	movf	___flmul@prod,w
  4431  0F88  00C2               	movwf	??___flmul
  4432  0F89  084F               	movf	___flmul@prod+1,w
  4433  0F8A  00C3               	movwf	??___flmul+1
  4434  0F8B  0850               	movf	___flmul@prod+2,w
  4435  0F8C  00C4               	movwf	??___flmul+2
  4436  0F8D  0851               	movf	___flmul@prod+3,w
  4437  0F8E  00C5               	movwf	??___flmul+3
  4438  0F8F  3001               	movlw	1
  4439  0F90  00C6               	movwf	??___flmul+4
  4440  0F91                     u2985:	
  4441  0F91  0D45               	rlf	??___flmul+3,w
  4442  0F92  0CC5               	rrf	??___flmul+3,f
  4443  0F93  0CC4               	rrf	??___flmul+2,f
  4444  0F94  0CC3               	rrf	??___flmul+1,f
  4445  0F95  0CC2               	rrf	??___flmul,f
  4446  0F96                     u2980:	
  4447  0F96  0BC6               	decfsz	??___flmul+4,f
  4448  0F97  2F91               	goto	u2985
  4449  0F98  0845               	movf	??___flmul+3,w
  4450  0F99  00D1               	movwf	___flmul@prod+3
  4451  0F9A  0844               	movf	??___flmul+2,w
  4452  0F9B  00D0               	movwf	___flmul@prod+2
  4453  0F9C  0843               	movf	??___flmul+1,w
  4454  0F9D  00CF               	movwf	___flmul@prod+1
  4455  0F9E  0842               	movf	??___flmul,w
  4456  0F9F  00CE               	movwf	___flmul@prod
  4457  0FA0                     l1930:	
  4458  0FA0  3001               	movlw	1
  4459  0FA1  07D2               	addwf	___flmul@temp,f
  4460  0FA2  1803               	skipnc
  4461  0FA3  0AD3               	incf	___flmul@temp+1,f
  4462  0FA4  3000               	movlw	0
  4463  0FA5  07D3               	addwf	___flmul@temp+1,f
  4464  0FA6                     l1932:	
  4465  0FA6  0853               	movf	___flmul@temp+1,w
  4466  0FA7  3A80               	xorlw	128
  4467  0FA8  00FF               	movwf	btemp+1
  4468  0FA9  3080               	movlw	128
  4469  0FAA  027F               	subwf	btemp+1,w
  4470  0FAB  1D03               	skipz
  4471  0FAC  2FAF               	goto	u2995
  4472  0FAD  30FF               	movlw	255
  4473  0FAE  0252               	subwf	___flmul@temp,w
  4474  0FAF                     u2995:	
  4475  0FAF  1C03               	skipc
  4476  0FB0  2FB2               	goto	u2991
  4477  0FB1  2FB3               	goto	u2990
  4478  0FB2                     u2991:	
  4479  0FB2  2FBE               	goto	l1936
  4480  0FB3                     u2990:	
  4481  0FB3                     l1934:	
  4482  0FB3  307F               	movlw	127
  4483  0FB4  1283               	bcf	3,5	;RP0=0, select bank0
  4484  0FB5  1303               	bcf	3,6	;RP1=0, select bank0
  4485  0FB6  00D1               	movwf	___flmul@prod+3
  4486  0FB7  3080               	movlw	128
  4487  0FB8  00D0               	movwf	___flmul@prod+2
  4488  0FB9  3000               	movlw	0
  4489  0FBA  00CF               	movwf	___flmul@prod+1
  4490  0FBB  3000               	movlw	0
  4491  0FBC  00CE               	movwf	___flmul@prod
  4492  0FBD  2FF3               	goto	l583
  4493  0FBE                     l1936:	
  4494  0FBE  1283               	bcf	3,5	;RP0=0, select bank0
  4495  0FBF  1303               	bcf	3,6	;RP1=0, select bank0
  4496  0FC0  0853               	movf	___flmul@temp+1,w
  4497  0FC1  3A80               	xorlw	128
  4498  0FC2  00FF               	movwf	btemp+1
  4499  0FC3  3080               	movlw	128
  4500  0FC4  027F               	subwf	btemp+1,w
  4501  0FC5  1D03               	skipz
  4502  0FC6  2FC9               	goto	u3005
  4503  0FC7  3001               	movlw	1
  4504  0FC8  0252               	subwf	___flmul@temp,w
  4505  0FC9                     u3005:	
  4506  0FC9  1803               	skipnc
  4507  0FCA  2FCC               	goto	u3001
  4508  0FCB  2FCD               	goto	u3000
  4509  0FCC                     u3001:	
  4510  0FCC  2FD9               	goto	l1942
  4511  0FCD                     u3000:	
  4512  0FCD                     l1938:	
  4513  0FCD  3000               	movlw	0
  4514  0FCE  1283               	bcf	3,5	;RP0=0, select bank0
  4515  0FCF  1303               	bcf	3,6	;RP1=0, select bank0
  4516  0FD0  00D1               	movwf	___flmul@prod+3
  4517  0FD1  3000               	movlw	0
  4518  0FD2  00D0               	movwf	___flmul@prod+2
  4519  0FD3  3000               	movlw	0
  4520  0FD4  00CF               	movwf	___flmul@prod+1
  4521  0FD5  3000               	movlw	0
  4522  0FD6  00CE               	movwf	___flmul@prod
  4523  0FD7                     l1940:	
  4524  0FD7  01C7               	clrf	___flmul@sign
  4525  0FD8  2FF3               	goto	l583
  4526  0FD9                     l1942:	
  4527  0FD9  1283               	bcf	3,5	;RP0=0, select bank0
  4528  0FDA  1303               	bcf	3,6	;RP1=0, select bank0
  4529  0FDB  0852               	movf	___flmul@temp,w
  4530  0FDC  00C2               	movwf	??___flmul
  4531  0FDD  0842               	movf	??___flmul,w
  4532  0FDE  00CD               	movwf	___flmul@bexp
  4533  0FDF  30FF               	movlw	255
  4534  0FE0  05CE               	andwf	___flmul@prod,f
  4535  0FE1  30FF               	movlw	255
  4536  0FE2  05CF               	andwf	___flmul@prod+1,f
  4537  0FE3  307F               	movlw	127
  4538  0FE4  05D0               	andwf	___flmul@prod+2,f
  4539  0FE5  3000               	movlw	0
  4540  0FE6  05D1               	andwf	___flmul@prod+3,f
  4541  0FE7                     l1944:	
  4542  0FE7  1C4D               	btfss	___flmul@bexp,0
  4543  0FE8  2FEA               	goto	u3011
  4544  0FE9  2FEB               	goto	u3010
  4545  0FEA                     u3011:	
  4546  0FEA  2FEC               	goto	l1948
  4547  0FEB                     u3010:	
  4548  0FEB                     l1946:	
  4549  0FEB  17D0               	bsf	___flmul@prod+2,7
  4550  0FEC                     l1948:	
  4551  0FEC  084D               	movf	___flmul@bexp,w
  4552  0FED  00C2               	movwf	??___flmul
  4553  0FEE  1003               	clrc
  4554  0FEF  0C42               	rrf	??___flmul,w
  4555  0FF0  00C3               	movwf	??___flmul+1
  4556  0FF1  0843               	movf	??___flmul+1,w
  4557  0FF2  00D1               	movwf	___flmul@prod+3
  4558  0FF3                     l583:	
  4559  0FF3  0847               	movf	___flmul@sign,w
  4560  0FF4  00C2               	movwf	??___flmul
  4561  0FF5  0842               	movf	??___flmul,w
  4562  0FF6  04D1               	iorwf	___flmul@prod+3,f
  4563  0FF7                     l1950:	
  4564  0FF7  0851               	movf	___flmul@prod+3,w
  4565  0FF8  00BD               	movwf	?___flmul+3
  4566  0FF9  0850               	movf	___flmul@prod+2,w
  4567  0FFA  00BC               	movwf	?___flmul+2
  4568  0FFB  084F               	movf	___flmul@prod+1,w
  4569  0FFC  00BB               	movwf	?___flmul+1
  4570  0FFD  084E               	movf	___flmul@prod,w
  4571  0FFE  00BA               	movwf	?___flmul
  4572  0FFF                     l571:	
  4573  0FFF  0008               	return
  4574  1000                     __end_of___flmul:	
  4575                           
  4576                           	psect	text7
  4577  0971                     __ptext7:	
  4578 ;; *************** function __Umul8_16 *****************
  4579 ;; Defined at:
  4580 ;;		line 4 in file "C:\Program Files (x86)\Microchip\xc8\v2.10\pic\sources\c90\common\Umul8_16.c"
  4581 ;; Parameters:    Size  Location     Type
  4582 ;;  multiplier      1    wreg     unsigned char 
  4583 ;;  multiplicand    1    0[COMMON] unsigned char 
  4584 ;; Auto vars:     Size  Location     Type
  4585 ;;  multiplier      1    8[COMMON] unsigned char 
  4586 ;;  word_mpld       2    6[COMMON] unsigned int 
  4587 ;;  product         2    4[COMMON] unsigned int 
  4588 ;; Return value:  Size  Location     Type
  4589 ;;                  2    0[COMMON] unsigned int 
  4590 ;; Registers used:
  4591 ;;		wreg, status,2, status,0
  4592 ;; Tracked objects:
  4593 ;;		On entry : 0/0
  4594 ;;		On exit  : 0/0
  4595 ;;		Unchanged: 0/0
  4596 ;; Data sizes:     COMMON   BANK0   BANK1   BANK3   BANK2
  4597 ;;      Params:         2       0       0       0       0
  4598 ;;      Locals:         5       0       0       0       0
  4599 ;;      Temps:          2       0       0       0       0
  4600 ;;      Totals:         9       0       0       0       0
  4601 ;;Total ram usage:        9 bytes
  4602 ;; Hardware stack levels used:    1
  4603 ;; This function calls:
  4604 ;;		Nothing
  4605 ;; This function is called by:
  4606 ;;		___flmul
  4607 ;; This function uses a non-reentrant model
  4608 ;;
  4609                           
  4610                           
  4611                           ;psect for function __Umul8_16
  4612  0971                     __Umul8_16:	
  4613                           
  4614                           ;incstack = 0
  4615                           ; Regs used in __Umul8_16: [wreg+status,2+status,0]
  4616                           ;__Umul8_16@multiplier stored from wreg
  4617  0971  00F8               	movwf	__Umul8_16@multiplier
  4618  0972                     l1622:	
  4619  0972  01F4               	clrf	__Umul8_16@product
  4620  0973  01F5               	clrf	__Umul8_16@product+1
  4621  0974                     l1624:	
  4622  0974  0870               	movf	__Umul8_16@multiplicand,w
  4623  0975  00F2               	movwf	??__Umul8_16
  4624  0976  01F3               	clrf	??__Umul8_16+1
  4625  0977  0872               	movf	??__Umul8_16,w
  4626  0978  00F6               	movwf	__Umul8_16@word_mpld
  4627  0979  0873               	movf	??__Umul8_16+1,w
  4628  097A  00F7               	movwf	__Umul8_16@word_mpld+1
  4629  097B                     l1626:	
  4630  097B  1C78               	btfss	__Umul8_16@multiplier,0
  4631  097C  297E               	goto	u2251
  4632  097D  297F               	goto	u2250
  4633  097E                     u2251:	
  4634  097E  2985               	goto	l634
  4635  097F                     u2250:	
  4636  097F                     l1628:	
  4637  097F  0876               	movf	__Umul8_16@word_mpld,w
  4638  0980  07F4               	addwf	__Umul8_16@product,f
  4639  0981  1803               	skipnc
  4640  0982  0AF5               	incf	__Umul8_16@product+1,f
  4641  0983  0877               	movf	__Umul8_16@word_mpld+1,w
  4642  0984  07F5               	addwf	__Umul8_16@product+1,f
  4643  0985                     l634:	
  4644  0985  3001               	movlw	1
  4645  0986                     u2265:	
  4646  0986  1003               	clrc
  4647  0987  0DF6               	rlf	__Umul8_16@word_mpld,f
  4648  0988  0DF7               	rlf	__Umul8_16@word_mpld+1,f
  4649  0989  3EFF               	addlw	-1
  4650  098A  1D03               	skipz
  4651  098B  2986               	goto	u2265
  4652  098C  1003               	clrc
  4653  098D  0CF8               	rrf	__Umul8_16@multiplier,f
  4654  098E                     l1630:	
  4655  098E  0878               	movf	__Umul8_16@multiplier,w
  4656  098F  1D03               	btfss	3,2
  4657  0990  2992               	goto	u2271
  4658  0991  2993               	goto	u2270
  4659  0992                     u2271:	
  4660  0992  297B               	goto	l1626
  4661  0993                     u2270:	
  4662  0993                     l1632:	
  4663  0993  0875               	movf	__Umul8_16@product+1,w
  4664  0994  00F1               	movwf	?__Umul8_16+1
  4665  0995  0874               	movf	__Umul8_16@product,w
  4666  0996  00F0               	movwf	?__Umul8_16
  4667  0997                     l636:	
  4668  0997  0008               	return
  4669  0998                     __end_of__Umul8_16:	
  4670                           
  4671                           	psect	text8
  4672  0016                     __ptext8:	
  4673 ;; *************** function ___flge *****************
  4674 ;; Defined at:
  4675 ;;		line 4 in file "C:\Program Files (x86)\Microchip\xc8\v2.10\pic\sources\c90\common\flge.c"
  4676 ;; Parameters:    Size  Location     Type
  4677 ;;  ff1             4    0[BANK0 ] unsigned int 
  4678 ;;  ff2             4    4[BANK0 ] unsigned int 
  4679 ;; Auto vars:     Size  Location     Type
  4680 ;;		None
  4681 ;; Return value:  Size  Location     Type
  4682 ;;		None               void
  4683 ;; Registers used:
  4684 ;;		wreg, status,2, status,0
  4685 ;; Tracked objects:
  4686 ;;		On entry : 0/0
  4687 ;;		On exit  : 0/0
  4688 ;;		Unchanged: 0/0
  4689 ;; Data sizes:     COMMON   BANK0   BANK1   BANK3   BANK2
  4690 ;;      Params:         0       8       0       0       0
  4691 ;;      Locals:         0       0       0       0       0
  4692 ;;      Temps:          0       4       0       0       0
  4693 ;;      Totals:         0      12       0       0       0
  4694 ;;Total ram usage:       12 bytes
  4695 ;; Hardware stack levels used:    1
  4696 ;; This function calls:
  4697 ;;		Nothing
  4698 ;; This function is called by:
  4699 ;;		_write_led
  4700 ;; This function uses a non-reentrant model
  4701 ;;
  4702                           
  4703                           
  4704                           ;psect for function ___flge
  4705  0016                     ___flge:	
  4706  0016                     l1646:	
  4707                           ;incstack = 0
  4708                           ; Regs used in ___flge: [wreg+status,2+status,0]
  4709                           
  4710  0016  3000               	movlw	0
  4711  0017  1283               	bcf	3,5	;RP0=0, select bank0
  4712  0018  1303               	bcf	3,6	;RP1=0, select bank0
  4713  0019  0520               	andwf	___flge@ff1,w
  4714  001A  00A8               	movwf	??___flge
  4715  001B  3000               	movlw	0
  4716  001C  0521               	andwf	___flge@ff1+1,w
  4717  001D  00A9               	movwf	??___flge+1
  4718  001E  3080               	movlw	128
  4719  001F  0522               	andwf	___flge@ff1+2,w
  4720  0020  00AA               	movwf	??___flge+2
  4721  0021  307F               	movlw	127
  4722  0022  0523               	andwf	___flge@ff1+3,w
  4723  0023  00AB               	movwf	??___flge+3
  4724  0024  082B               	movf	??___flge+3,w
  4725  0025  042A               	iorwf	??___flge+2,w
  4726  0026  0429               	iorwf	??___flge+1,w
  4727  0027  0428               	iorwf	??___flge,w
  4728  0028  1D03               	skipz
  4729  0029  282B               	goto	u2291
  4730  002A  282C               	goto	u2290
  4731  002B                     u2291:	
  4732  002B  2834               	goto	l356
  4733  002C                     u2290:	
  4734  002C                     l1648:	
  4735  002C  3000               	movlw	0
  4736  002D  00A3               	movwf	___flge@ff1+3
  4737  002E  3000               	movlw	0
  4738  002F  00A2               	movwf	___flge@ff1+2
  4739  0030  3000               	movlw	0
  4740  0031  00A1               	movwf	___flge@ff1+1
  4741  0032  3000               	movlw	0
  4742  0033  00A0               	movwf	___flge@ff1
  4743  0034                     l356:	
  4744  0034  3000               	movlw	0
  4745  0035  0524               	andwf	___flge@ff2,w
  4746  0036  00A8               	movwf	??___flge
  4747  0037  3000               	movlw	0
  4748  0038  0525               	andwf	___flge@ff2+1,w
  4749  0039  00A9               	movwf	??___flge+1
  4750  003A  3080               	movlw	128
  4751  003B  0526               	andwf	___flge@ff2+2,w
  4752  003C  00AA               	movwf	??___flge+2
  4753  003D  307F               	movlw	127
  4754  003E  0527               	andwf	___flge@ff2+3,w
  4755  003F  00AB               	movwf	??___flge+3
  4756  0040  082B               	movf	??___flge+3,w
  4757  0041  042A               	iorwf	??___flge+2,w
  4758  0042  0429               	iorwf	??___flge+1,w
  4759  0043  0428               	iorwf	??___flge,w
  4760  0044  1D03               	skipz
  4761  0045  2847               	goto	u2301
  4762  0046  2848               	goto	u2300
  4763  0047                     u2301:	
  4764  0047  2850               	goto	l1652
  4765  0048                     u2300:	
  4766  0048                     l1650:	
  4767  0048  3000               	movlw	0
  4768  0049  00A7               	movwf	___flge@ff2+3
  4769  004A  3000               	movlw	0
  4770  004B  00A6               	movwf	___flge@ff2+2
  4771  004C  3000               	movlw	0
  4772  004D  00A5               	movwf	___flge@ff2+1
  4773  004E  3000               	movlw	0
  4774  004F  00A4               	movwf	___flge@ff2
  4775  0050                     l1652:	
  4776  0050  1FA3               	btfss	___flge@ff1+3,7
  4777  0051  2853               	goto	u2311
  4778  0052  2854               	goto	u2310
  4779  0053                     u2311:	
  4780  0053  2878               	goto	l1656
  4781  0054                     u2310:	
  4782  0054                     l1654:	
  4783  0054  3000               	movlw	0
  4784  0055  00A8               	movwf	??___flge
  4785  0056  3000               	movlw	0
  4786  0057  00A9               	movwf	??___flge+1
  4787  0058  3000               	movlw	0
  4788  0059  00AA               	movwf	??___flge+2
  4789  005A  3080               	movlw	128
  4790  005B  00AB               	movwf	??___flge+3
  4791  005C  0820               	movf	___flge@ff1,w
  4792  005D  02A8               	subwf	??___flge,f
  4793  005E  0821               	movf	___flge@ff1+1,w
  4794  005F  1C03               	skipc
  4795  0060  0F21               	incfsz	___flge@ff1+1,w
  4796  0061  2863               	goto	u2321
  4797  0062  2864               	goto	u2322
  4798  0063                     u2321:	
  4799  0063  02A9               	subwf	??___flge+1,f
  4800  0064                     u2322:	
  4801  0064  0822               	movf	___flge@ff1+2,w
  4802  0065  1C03               	skipc
  4803  0066  0F22               	incfsz	___flge@ff1+2,w
  4804  0067  2869               	goto	u2323
  4805  0068  286A               	goto	u2324
  4806  0069                     u2323:	
  4807  0069  02AA               	subwf	??___flge+2,f
  4808  006A                     u2324:	
  4809  006A  0823               	movf	___flge@ff1+3,w
  4810  006B  1C03               	skipc
  4811  006C  0F23               	incfsz	___flge@ff1+3,w
  4812  006D  286F               	goto	u2325
  4813  006E  2870               	goto	u2326
  4814  006F                     u2325:	
  4815  006F  02AB               	subwf	??___flge+3,f
  4816  0070                     u2326:	
  4817  0070  082B               	movf	??___flge+3,w
  4818  0071  00A3               	movwf	___flge@ff1+3
  4819  0072  082A               	movf	??___flge+2,w
  4820  0073  00A2               	movwf	___flge@ff1+2
  4821  0074  0829               	movf	??___flge+1,w
  4822  0075  00A1               	movwf	___flge@ff1+1
  4823  0076  0828               	movf	??___flge,w
  4824  0077  00A0               	movwf	___flge@ff1
  4825  0078                     l1656:	
  4826  0078  1FA7               	btfss	___flge@ff2+3,7
  4827  0079  287B               	goto	u2331
  4828  007A  287C               	goto	u2330
  4829  007B                     u2331:	
  4830  007B  28A0               	goto	l359
  4831  007C                     u2330:	
  4832  007C                     l1658:	
  4833  007C  3000               	movlw	0
  4834  007D  00A8               	movwf	??___flge
  4835  007E  3000               	movlw	0
  4836  007F  00A9               	movwf	??___flge+1
  4837  0080  3000               	movlw	0
  4838  0081  00AA               	movwf	??___flge+2
  4839  0082  3080               	movlw	128
  4840  0083  00AB               	movwf	??___flge+3
  4841  0084  0824               	movf	___flge@ff2,w
  4842  0085  02A8               	subwf	??___flge,f
  4843  0086  0825               	movf	___flge@ff2+1,w
  4844  0087  1C03               	skipc
  4845  0088  0F25               	incfsz	___flge@ff2+1,w
  4846  0089  288B               	goto	u2341
  4847  008A  288C               	goto	u2342
  4848  008B                     u2341:	
  4849  008B  02A9               	subwf	??___flge+1,f
  4850  008C                     u2342:	
  4851  008C  0826               	movf	___flge@ff2+2,w
  4852  008D  1C03               	skipc
  4853  008E  0F26               	incfsz	___flge@ff2+2,w
  4854  008F  2891               	goto	u2343
  4855  0090  2892               	goto	u2344
  4856  0091                     u2343:	
  4857  0091  02AA               	subwf	??___flge+2,f
  4858  0092                     u2344:	
  4859  0092  0827               	movf	___flge@ff2+3,w
  4860  0093  1C03               	skipc
  4861  0094  0F27               	incfsz	___flge@ff2+3,w
  4862  0095  2897               	goto	u2345
  4863  0096  2898               	goto	u2346
  4864  0097                     u2345:	
  4865  0097  02AB               	subwf	??___flge+3,f
  4866  0098                     u2346:	
  4867  0098  082B               	movf	??___flge+3,w
  4868  0099  00A7               	movwf	___flge@ff2+3
  4869  009A  082A               	movf	??___flge+2,w
  4870  009B  00A6               	movwf	___flge@ff2+2
  4871  009C  0829               	movf	??___flge+1,w
  4872  009D  00A5               	movwf	___flge@ff2+1
  4873  009E  0828               	movf	??___flge,w
  4874  009F  00A4               	movwf	___flge@ff2
  4875  00A0                     l359:	
  4876  00A0  3080               	movlw	128
  4877  00A1  06A3               	xorwf	___flge@ff1+3,f
  4878  00A2  3080               	movlw	128
  4879  00A3  06A7               	xorwf	___flge@ff2+3,f
  4880  00A4  0827               	movf	___flge@ff2+3,w
  4881  00A5  0223               	subwf	___flge@ff1+3,w
  4882  00A6  1D03               	skipz
  4883  00A7  28B2               	goto	u2355
  4884  00A8  0826               	movf	___flge@ff2+2,w
  4885  00A9  0222               	subwf	___flge@ff1+2,w
  4886  00AA  1D03               	skipz
  4887  00AB  28B2               	goto	u2355
  4888  00AC  0825               	movf	___flge@ff2+1,w
  4889  00AD  0221               	subwf	___flge@ff1+1,w
  4890  00AE  1D03               	skipz
  4891  00AF  28B2               	goto	u2355
  4892  00B0  0824               	movf	___flge@ff2,w
  4893  00B1  0220               	subwf	___flge@ff1,w
  4894  00B2                     u2355:	
  4895  00B2  1803               	skipnc
  4896  00B3  28B5               	goto	u2351
  4897  00B4  28B6               	goto	u2350
  4898  00B5                     u2351:	
  4899  00B5  28B8               	goto	l1662
  4900  00B6                     u2350:	
  4901  00B6                     l1660:	
  4902  00B6  1003               	clrc
  4903  00B7  28B9               	goto	l360
  4904  00B8                     l1662:	
  4905  00B8  1403               	setc
  4906  00B9                     l360:	
  4907  00B9  0008               	return
  4908  00BA                     __end_of___flge:	
  4909                           
  4910                           	psect	text9
  4911  0AC2                     __ptext9:	
  4912 ;; *************** function ___fldiv *****************
  4913 ;; Defined at:
  4914 ;;		line 8 in file "C:\Program Files (x86)\Microchip\xc8\v2.10\pic\sources\c90\common\sprcdiv.c"
  4915 ;; Parameters:    Size  Location     Type
  4916 ;;  a               4    0[BANK0 ] unsigned int 
  4917 ;;  b               4    4[BANK0 ] unsigned int 
  4918 ;; Auto vars:     Size  Location     Type
  4919 ;;  grs             4   20[BANK0 ] unsigned long 
  4920 ;;  rem             4   13[BANK0 ] unsigned long 
  4921 ;;  new_exp         2   18[BANK0 ] int 
  4922 ;;  aexp            1   25[BANK0 ] unsigned char 
  4923 ;;  bexp            1   24[BANK0 ] unsigned char 
  4924 ;;  sign            1   17[BANK0 ] unsigned char 
  4925 ;; Return value:  Size  Location     Type
  4926 ;;                  4    0[BANK0 ] unsigned char 
  4927 ;; Registers used:
  4928 ;;		wreg, status,2, status,0, btemp+1
  4929 ;; Tracked objects:
  4930 ;;		On entry : 0/0
  4931 ;;		On exit  : 0/0
  4932 ;;		Unchanged: 0/0
  4933 ;; Data sizes:     COMMON   BANK0   BANK1   BANK3   BANK2
  4934 ;;      Params:         0       8       0       0       0
  4935 ;;      Locals:         0      13       0       0       0
  4936 ;;      Temps:          0       5       0       0       0
  4937 ;;      Totals:         0      26       0       0       0
  4938 ;;Total ram usage:       26 bytes
  4939 ;; Hardware stack levels used:    1
  4940 ;; This function calls:
  4941 ;;		Nothing
  4942 ;; This function is called by:
  4943 ;;		_write_led
  4944 ;; This function uses a non-reentrant model
  4945 ;;
  4946                           
  4947                           
  4948                           ;psect for function ___fldiv
  4949  0AC2                     ___fldiv:	
  4950  0AC2                     l1672:	
  4951                           ;incstack = 0
  4952                           ; Regs used in ___fldiv: [wreg+status,2+status,0+btemp+1]
  4953                           
  4954  0AC2  1283               	bcf	3,5	;RP0=0, select bank0
  4955  0AC3  1303               	bcf	3,6	;RP1=0, select bank0
  4956  0AC4  0827               	movf	___fldiv@b+3,w
  4957  0AC5  3980               	andlw	128
  4958  0AC6  00A8               	movwf	??___fldiv
  4959  0AC7  0828               	movf	??___fldiv,w
  4960  0AC8  00B1               	movwf	___fldiv@sign
  4961  0AC9                     l1674:	
  4962  0AC9  0827               	movf	___fldiv@b+3,w
  4963  0ACA  00A8               	movwf	??___fldiv
  4964  0ACB  0728               	addwf	??___fldiv,w
  4965  0ACC  00A9               	movwf	??___fldiv+1
  4966  0ACD  0829               	movf	??___fldiv+1,w
  4967  0ACE  00B8               	movwf	___fldiv@bexp
  4968  0ACF                     l1676:	
  4969  0ACF  1FA6               	btfss	___fldiv@b+2,7
  4970  0AD0  2AD2               	goto	u2361
  4971  0AD1  2AD3               	goto	u2360
  4972  0AD2                     u2361:	
  4973  0AD2  2AD4               	goto	l1680
  4974  0AD3                     u2360:	
  4975  0AD3                     l1678:	
  4976  0AD3  1438               	bsf	___fldiv@bexp,0
  4977  0AD4                     l1680:	
  4978  0AD4  0838               	movf	___fldiv@bexp,w
  4979  0AD5  1903               	btfsc	3,2
  4980  0AD6  2AD8               	goto	u2371
  4981  0AD7  2AD9               	goto	u2370
  4982  0AD8                     u2371:	
  4983  0AD8  2AE9               	goto	l1690
  4984  0AD9                     u2370:	
  4985  0AD9                     l1682:	
  4986  0AD9  0A38               	incf	___fldiv@bexp,w
  4987  0ADA  1D03               	btfss	3,2
  4988  0ADB  2ADD               	goto	u2381
  4989  0ADC  2ADE               	goto	u2380
  4990  0ADD                     u2381:	
  4991  0ADD  2AE6               	goto	l1686
  4992  0ADE                     u2380:	
  4993  0ADE                     l1684:	
  4994  0ADE  3000               	movlw	0
  4995  0ADF  00A7               	movwf	___fldiv@b+3
  4996  0AE0  3000               	movlw	0
  4997  0AE1  00A6               	movwf	___fldiv@b+2
  4998  0AE2  3000               	movlw	0
  4999  0AE3  00A5               	movwf	___fldiv@b+1
  5000  0AE4  3000               	movlw	0
  5001  0AE5  00A4               	movwf	___fldiv@b
  5002  0AE6                     l1686:	
  5003  0AE6  17A6               	bsf	___fldiv@b+2,7
  5004  0AE7                     l1688:	
  5005  0AE7  01A7               	clrf	___fldiv@b+3
  5006  0AE8  2AF1               	goto	l1692
  5007  0AE9                     l1690:	
  5008  0AE9  3000               	movlw	0
  5009  0AEA  00A7               	movwf	___fldiv@b+3
  5010  0AEB  3000               	movlw	0
  5011  0AEC  00A6               	movwf	___fldiv@b+2
  5012  0AED  3000               	movlw	0
  5013  0AEE  00A5               	movwf	___fldiv@b+1
  5014  0AEF  3000               	movlw	0
  5015  0AF0  00A4               	movwf	___fldiv@b
  5016  0AF1                     l1692:	
  5017  0AF1  0823               	movf	___fldiv@a+3,w
  5018  0AF2  3980               	andlw	128
  5019  0AF3  00A8               	movwf	??___fldiv
  5020  0AF4  0828               	movf	??___fldiv,w
  5021  0AF5  06B1               	xorwf	___fldiv@sign,f
  5022  0AF6                     l1694:	
  5023  0AF6  0823               	movf	___fldiv@a+3,w
  5024  0AF7  00A8               	movwf	??___fldiv
  5025  0AF8  0728               	addwf	??___fldiv,w
  5026  0AF9  00A9               	movwf	??___fldiv+1
  5027  0AFA  0829               	movf	??___fldiv+1,w
  5028  0AFB  00B9               	movwf	___fldiv@aexp
  5029  0AFC                     l1696:	
  5030  0AFC  1FA2               	btfss	___fldiv@a+2,7
  5031  0AFD  2AFF               	goto	u2391
  5032  0AFE  2B00               	goto	u2390
  5033  0AFF                     u2391:	
  5034  0AFF  2B01               	goto	l1700
  5035  0B00                     u2390:	
  5036  0B00                     l1698:	
  5037  0B00  1439               	bsf	___fldiv@aexp,0
  5038  0B01                     l1700:	
  5039  0B01  0839               	movf	___fldiv@aexp,w
  5040  0B02  1903               	btfsc	3,2
  5041  0B03  2B05               	goto	u2401
  5042  0B04  2B06               	goto	u2400
  5043  0B05                     u2401:	
  5044  0B05  2B16               	goto	l1710
  5045  0B06                     u2400:	
  5046  0B06                     l1702:	
  5047  0B06  0A39               	incf	___fldiv@aexp,w
  5048  0B07  1D03               	btfss	3,2
  5049  0B08  2B0A               	goto	u2411
  5050  0B09  2B0B               	goto	u2410
  5051  0B0A                     u2411:	
  5052  0B0A  2B13               	goto	l1706
  5053  0B0B                     u2410:	
  5054  0B0B                     l1704:	
  5055  0B0B  3000               	movlw	0
  5056  0B0C  00A3               	movwf	___fldiv@a+3
  5057  0B0D  3000               	movlw	0
  5058  0B0E  00A2               	movwf	___fldiv@a+2
  5059  0B0F  3000               	movlw	0
  5060  0B10  00A1               	movwf	___fldiv@a+1
  5061  0B11  3000               	movlw	0
  5062  0B12  00A0               	movwf	___fldiv@a
  5063  0B13                     l1706:	
  5064  0B13  17A2               	bsf	___fldiv@a+2,7
  5065  0B14                     l1708:	
  5066  0B14  01A3               	clrf	___fldiv@a+3
  5067  0B15  2B1E               	goto	l531
  5068  0B16                     l1710:	
  5069  0B16  3000               	movlw	0
  5070  0B17  00A3               	movwf	___fldiv@a+3
  5071  0B18  3000               	movlw	0
  5072  0B19  00A2               	movwf	___fldiv@a+2
  5073  0B1A  3000               	movlw	0
  5074  0B1B  00A1               	movwf	___fldiv@a+1
  5075  0B1C  3000               	movlw	0
  5076  0B1D  00A0               	movwf	___fldiv@a
  5077  0B1E                     l531:	
  5078  0B1E  0823               	movf	___fldiv@a+3,w
  5079  0B1F  0422               	iorwf	___fldiv@a+2,w
  5080  0B20  0421               	iorwf	___fldiv@a+1,w
  5081  0B21  0420               	iorwf	___fldiv@a,w
  5082  0B22  1D03               	skipz
  5083  0B23  2B25               	goto	u2421
  5084  0B24  2B26               	goto	u2420
  5085  0B25                     u2421:	
  5086  0B25  2B3F               	goto	l1720
  5087  0B26                     u2420:	
  5088  0B26                     l1712:	
  5089  0B26  3000               	movlw	0
  5090  0B27  00A7               	movwf	___fldiv@b+3
  5091  0B28  3000               	movlw	0
  5092  0B29  00A6               	movwf	___fldiv@b+2
  5093  0B2A  3000               	movlw	0
  5094  0B2B  00A5               	movwf	___fldiv@b+1
  5095  0B2C  3000               	movlw	0
  5096  0B2D  00A4               	movwf	___fldiv@b
  5097  0B2E  3080               	movlw	128
  5098  0B2F  04A6               	iorwf	___fldiv@b+2,f
  5099  0B30  307F               	movlw	127
  5100  0B31  04A7               	iorwf	___fldiv@b+3,f
  5101  0B32                     l1714:	
  5102  0B32  0831               	movf	___fldiv@sign,w
  5103  0B33  00A8               	movwf	??___fldiv
  5104  0B34  0828               	movf	??___fldiv,w
  5105  0B35  04A7               	iorwf	___fldiv@b+3,f
  5106  0B36                     l1716:	
  5107  0B36  0827               	movf	___fldiv@b+3,w
  5108  0B37  00A3               	movwf	?___fldiv+3
  5109  0B38  0826               	movf	___fldiv@b+2,w
  5110  0B39  00A2               	movwf	?___fldiv+2
  5111  0B3A  0825               	movf	___fldiv@b+1,w
  5112  0B3B  00A1               	movwf	?___fldiv+1
  5113  0B3C  0824               	movf	___fldiv@b,w
  5114  0B3D  00A0               	movwf	?___fldiv
  5115  0B3E  2C9E               	goto	l533
  5116  0B3F                     l1720:	
  5117  0B3F  0838               	movf	___fldiv@bexp,w
  5118  0B40  1D03               	btfss	3,2
  5119  0B41  2B43               	goto	u2431
  5120  0B42  2B44               	goto	u2430
  5121  0B43                     u2431:	
  5122  0B43  2B4D               	goto	l1726
  5123  0B44                     u2430:	
  5124  0B44                     l1722:	
  5125  0B44  3000               	movlw	0
  5126  0B45  00A3               	movwf	?___fldiv+3
  5127  0B46  3000               	movlw	0
  5128  0B47  00A2               	movwf	?___fldiv+2
  5129  0B48  3000               	movlw	0
  5130  0B49  00A1               	movwf	?___fldiv+1
  5131  0B4A  3000               	movlw	0
  5132  0B4B  00A0               	movwf	?___fldiv
  5133  0B4C  2C9E               	goto	l533
  5134  0B4D                     l1726:	
  5135  0B4D  0838               	movf	___fldiv@bexp,w
  5136  0B4E  00A8               	movwf	??___fldiv
  5137  0B4F  01A9               	clrf	??___fldiv+1
  5138  0B50  0829               	movf	??___fldiv+1,w
  5139  0B51  00AB               	movwf	??___fldiv+3
  5140  0B52  0839               	movf	___fldiv@aexp,w
  5141  0B53  0228               	subwf	??___fldiv,w
  5142  0B54  00AA               	movwf	??___fldiv+2
  5143  0B55  1C03               	skipc
  5144  0B56  03AB               	decf	??___fldiv+3,f
  5145  0B57  082A               	movf	??___fldiv+2,w
  5146  0B58  3E7F               	addlw	127
  5147  0B59  00B2               	movwf	___fldiv@new_exp
  5148  0B5A  082B               	movf	??___fldiv+3,w
  5149  0B5B  1803               	skipnc
  5150  0B5C  3E01               	addlw	1
  5151  0B5D  3E00               	addlw	0
  5152  0B5E  00B3               	movwf	___fldiv@new_exp+1
  5153  0B5F                     l1728:	
  5154  0B5F  0827               	movf	___fldiv@b+3,w
  5155  0B60  00B0               	movwf	___fldiv@rem+3
  5156  0B61  0826               	movf	___fldiv@b+2,w
  5157  0B62  00AF               	movwf	___fldiv@rem+2
  5158  0B63  0825               	movf	___fldiv@b+1,w
  5159  0B64  00AE               	movwf	___fldiv@rem+1
  5160  0B65  0824               	movf	___fldiv@b,w
  5161  0B66  00AD               	movwf	___fldiv@rem
  5162  0B67                     l1730:	
  5163  0B67  3000               	movlw	0
  5164  0B68  00A7               	movwf	___fldiv@b+3
  5165  0B69  3000               	movlw	0
  5166  0B6A  00A6               	movwf	___fldiv@b+2
  5167  0B6B  3000               	movlw	0
  5168  0B6C  00A5               	movwf	___fldiv@b+1
  5169  0B6D  3000               	movlw	0
  5170  0B6E  00A4               	movwf	___fldiv@b
  5171  0B6F                     l1732:	
  5172  0B6F  3000               	movlw	0
  5173  0B70  00B7               	movwf	___fldiv@grs+3
  5174  0B71  3000               	movlw	0
  5175  0B72  00B6               	movwf	___fldiv@grs+2
  5176  0B73  3000               	movlw	0
  5177  0B74  00B5               	movwf	___fldiv@grs+1
  5178  0B75  3000               	movlw	0
  5179  0B76  00B4               	movwf	___fldiv@grs
  5180  0B77                     l1734:	
  5181  0B77  01B9               	clrf	___fldiv@aexp
  5182  0B78  2BC3               	goto	l1754
  5183  0B79                     l1736:	
  5184  0B79  0839               	movf	___fldiv@aexp,w
  5185  0B7A  1903               	btfsc	3,2
  5186  0B7B  2B7D               	goto	u2441
  5187  0B7C  2B7E               	goto	u2440
  5188  0B7D                     u2441:	
  5189  0B7D  2B9E               	goto	l1746
  5190  0B7E                     u2440:	
  5191  0B7E                     l1738:	
  5192  0B7E  3001               	movlw	1
  5193  0B7F  00A8               	movwf	??___fldiv
  5194  0B80                     u2455:	
  5195  0B80  1003               	clrc
  5196  0B81  0DAD               	rlf	___fldiv@rem,f
  5197  0B82  0DAE               	rlf	___fldiv@rem+1,f
  5198  0B83  0DAF               	rlf	___fldiv@rem+2,f
  5199  0B84  0DB0               	rlf	___fldiv@rem+3,f
  5200  0B85  0BA8               	decfsz	??___fldiv,f
  5201  0B86  2B80               	goto	u2455
  5202  0B87  3001               	movlw	1
  5203  0B88  00A8               	movwf	??___fldiv
  5204  0B89                     u2465:	
  5205  0B89  1003               	clrc
  5206  0B8A  0DA4               	rlf	___fldiv@b,f
  5207  0B8B  0DA5               	rlf	___fldiv@b+1,f
  5208  0B8C  0DA6               	rlf	___fldiv@b+2,f
  5209  0B8D  0DA7               	rlf	___fldiv@b+3,f
  5210  0B8E  0BA8               	decfsz	??___fldiv,f
  5211  0B8F  2B89               	goto	u2465
  5212  0B90                     l1740:	
  5213  0B90  1FB7               	btfss	___fldiv@grs+3,7
  5214  0B91  2B93               	goto	u2471
  5215  0B92  2B94               	goto	u2470
  5216  0B93                     u2471:	
  5217  0B93  2B95               	goto	l1744
  5218  0B94                     u2470:	
  5219  0B94                     l1742:	
  5220  0B94  1424               	bsf	___fldiv@b,0
  5221  0B95                     l1744:	
  5222  0B95  3001               	movlw	1
  5223  0B96  00A8               	movwf	??___fldiv
  5224  0B97                     u2485:	
  5225  0B97  1003               	clrc
  5226  0B98  0DB4               	rlf	___fldiv@grs,f
  5227  0B99  0DB5               	rlf	___fldiv@grs+1,f
  5228  0B9A  0DB6               	rlf	___fldiv@grs+2,f
  5229  0B9B  0DB7               	rlf	___fldiv@grs+3,f
  5230  0B9C  0BA8               	decfsz	??___fldiv,f
  5231  0B9D  2B97               	goto	u2485
  5232  0B9E                     l1746:	
  5233  0B9E  0823               	movf	___fldiv@a+3,w
  5234  0B9F  0230               	subwf	___fldiv@rem+3,w
  5235  0BA0  1D03               	skipz
  5236  0BA1  2BAC               	goto	u2495
  5237  0BA2  0822               	movf	___fldiv@a+2,w
  5238  0BA3  022F               	subwf	___fldiv@rem+2,w
  5239  0BA4  1D03               	skipz
  5240  0BA5  2BAC               	goto	u2495
  5241  0BA6  0821               	movf	___fldiv@a+1,w
  5242  0BA7  022E               	subwf	___fldiv@rem+1,w
  5243  0BA8  1D03               	skipz
  5244  0BA9  2BAC               	goto	u2495
  5245  0BAA  0820               	movf	___fldiv@a,w
  5246  0BAB  022D               	subwf	___fldiv@rem,w
  5247  0BAC                     u2495:	
  5248  0BAC  1C03               	skipc
  5249  0BAD  2BAF               	goto	u2491
  5250  0BAE  2BB0               	goto	u2490
  5251  0BAF                     u2491:	
  5252  0BAF  2BBF               	goto	l1752
  5253  0BB0                     u2490:	
  5254  0BB0                     l1748:	
  5255  0BB0  1737               	bsf	___fldiv@grs+3,6
  5256  0BB1                     l1750:	
  5257  0BB1  0820               	movf	___fldiv@a,w
  5258  0BB2  02AD               	subwf	___fldiv@rem,f
  5259  0BB3  0821               	movf	___fldiv@a+1,w
  5260  0BB4  1C03               	skipc
  5261  0BB5  0F21               	incfsz	___fldiv@a+1,w
  5262  0BB6  02AE               	subwf	___fldiv@rem+1,f
  5263  0BB7  0822               	movf	___fldiv@a+2,w
  5264  0BB8  1C03               	skipc
  5265  0BB9  0F22               	incfsz	___fldiv@a+2,w
  5266  0BBA  02AF               	subwf	___fldiv@rem+2,f
  5267  0BBB  0823               	movf	___fldiv@a+3,w
  5268  0BBC  1C03               	skipc
  5269  0BBD  0F23               	incfsz	___fldiv@a+3,w
  5270  0BBE  02B0               	subwf	___fldiv@rem+3,f
  5271  0BBF                     l1752:	
  5272  0BBF  3001               	movlw	1
  5273  0BC0  00A8               	movwf	??___fldiv
  5274  0BC1  0828               	movf	??___fldiv,w
  5275  0BC2  07B9               	addwf	___fldiv@aexp,f
  5276  0BC3                     l1754:	
  5277  0BC3  301A               	movlw	26
  5278  0BC4  0239               	subwf	___fldiv@aexp,w
  5279  0BC5  1C03               	skipc
  5280  0BC6  2BC8               	goto	u2501
  5281  0BC7  2BC9               	goto	u2500
  5282  0BC8                     u2501:	
  5283  0BC8  2B79               	goto	l1736
  5284  0BC9                     u2500:	
  5285  0BC9                     l1756:	
  5286  0BC9  0830               	movf	___fldiv@rem+3,w
  5287  0BCA  042F               	iorwf	___fldiv@rem+2,w
  5288  0BCB  042E               	iorwf	___fldiv@rem+1,w
  5289  0BCC  042D               	iorwf	___fldiv@rem,w
  5290  0BCD  1903               	skipnz
  5291  0BCE  2BD0               	goto	u2511
  5292  0BCF  2BD1               	goto	u2510
  5293  0BD0                     u2511:	
  5294  0BD0  2BF0               	goto	l1770
  5295  0BD1                     u2510:	
  5296  0BD1                     l1758:	
  5297  0BD1  1434               	bsf	___fldiv@grs,0
  5298  0BD2  2BF0               	goto	l1770
  5299  0BD3                     l1760:	
  5300  0BD3  3001               	movlw	1
  5301  0BD4  00A8               	movwf	??___fldiv
  5302  0BD5                     u2525:	
  5303  0BD5  1003               	clrc
  5304  0BD6  0DA4               	rlf	___fldiv@b,f
  5305  0BD7  0DA5               	rlf	___fldiv@b+1,f
  5306  0BD8  0DA6               	rlf	___fldiv@b+2,f
  5307  0BD9  0DA7               	rlf	___fldiv@b+3,f
  5308  0BDA  0BA8               	decfsz	??___fldiv,f
  5309  0BDB  2BD5               	goto	u2525
  5310  0BDC                     l1762:	
  5311  0BDC  1FB7               	btfss	___fldiv@grs+3,7
  5312  0BDD  2BDF               	goto	u2531
  5313  0BDE  2BE0               	goto	u2530
  5314  0BDF                     u2531:	
  5315  0BDF  2BE1               	goto	l1766
  5316  0BE0                     u2530:	
  5317  0BE0                     l1764:	
  5318  0BE0  1424               	bsf	___fldiv@b,0
  5319  0BE1                     l1766:	
  5320  0BE1  3001               	movlw	1
  5321  0BE2  00A8               	movwf	??___fldiv
  5322  0BE3                     u2545:	
  5323  0BE3  1003               	clrc
  5324  0BE4  0DB4               	rlf	___fldiv@grs,f
  5325  0BE5  0DB5               	rlf	___fldiv@grs+1,f
  5326  0BE6  0DB6               	rlf	___fldiv@grs+2,f
  5327  0BE7  0DB7               	rlf	___fldiv@grs+3,f
  5328  0BE8  0BA8               	decfsz	??___fldiv,f
  5329  0BE9  2BE3               	goto	u2545
  5330  0BEA                     l1768:	
  5331  0BEA  30FF               	movlw	255
  5332  0BEB  07B2               	addwf	___fldiv@new_exp,f
  5333  0BEC  1803               	skipnc
  5334  0BED  0AB3               	incf	___fldiv@new_exp+1,f
  5335  0BEE  30FF               	movlw	255
  5336  0BEF  07B3               	addwf	___fldiv@new_exp+1,f
  5337  0BF0                     l1770:	
  5338  0BF0  1FA6               	btfss	___fldiv@b+2,7
  5339  0BF1  2BF3               	goto	u2551
  5340  0BF2  2BF4               	goto	u2550
  5341  0BF3                     u2551:	
  5342  0BF3  2BD3               	goto	l1760
  5343  0BF4                     u2550:	
  5344  0BF4                     l1772:	
  5345  0BF4  01B9               	clrf	___fldiv@aexp
  5346  0BF5                     l1774:	
  5347  0BF5  1FB7               	btfss	___fldiv@grs+3,7
  5348  0BF6  2BF8               	goto	u2561
  5349  0BF7  2BF9               	goto	u2560
  5350  0BF8                     u2561:	
  5351  0BF8  2C15               	goto	l1782
  5352  0BF9                     u2560:	
  5353  0BF9                     l1776:	
  5354  0BF9  30FF               	movlw	255
  5355  0BFA  0534               	andwf	___fldiv@grs,w
  5356  0BFB  00A8               	movwf	??___fldiv
  5357  0BFC  30FF               	movlw	255
  5358  0BFD  0535               	andwf	___fldiv@grs+1,w
  5359  0BFE  00A9               	movwf	??___fldiv+1
  5360  0BFF  30FF               	movlw	255
  5361  0C00  0536               	andwf	___fldiv@grs+2,w
  5362  0C01  00AA               	movwf	??___fldiv+2
  5363  0C02  307F               	movlw	127
  5364  0C03  0537               	andwf	___fldiv@grs+3,w
  5365  0C04  00AB               	movwf	??___fldiv+3
  5366  0C05  082B               	movf	??___fldiv+3,w
  5367  0C06  042A               	iorwf	??___fldiv+2,w
  5368  0C07  0429               	iorwf	??___fldiv+1,w
  5369  0C08  0428               	iorwf	??___fldiv,w
  5370  0C09  1903               	skipnz
  5371  0C0A  2C0C               	goto	u2571
  5372  0C0B  2C0D               	goto	u2570
  5373  0C0C                     u2571:	
  5374  0C0C  2C10               	goto	l547
  5375  0C0D                     u2570:	
  5376  0C0D                     l1778:	
  5377  0C0D  01B9               	clrf	___fldiv@aexp
  5378  0C0E  0AB9               	incf	___fldiv@aexp,f
  5379  0C0F  2C15               	goto	l1782
  5380  0C10                     l547:	
  5381  0C10  1C24               	btfss	___fldiv@b,0
  5382  0C11  2C13               	goto	u2581
  5383  0C12  2C14               	goto	u2580
  5384  0C13                     u2581:	
  5385  0C13  2C15               	goto	l1782
  5386  0C14                     u2580:	
  5387  0C14  2C0D               	goto	l1778
  5388  0C15                     l1782:	
  5389  0C15  0839               	movf	___fldiv@aexp,w
  5390  0C16  1903               	btfsc	3,2
  5391  0C17  2C19               	goto	u2591
  5392  0C18  2C1A               	goto	u2590
  5393  0C19                     u2591:	
  5394  0C19  2C4B               	goto	l1792
  5395  0C1A                     u2590:	
  5396  0C1A                     l1784:	
  5397  0C1A  3001               	movlw	1
  5398  0C1B  07A4               	addwf	___fldiv@b,f
  5399  0C1C  3000               	movlw	0
  5400  0C1D  1803               	skipnc
  5401  0C1E  3001               	movlw	1
  5402  0C1F  07A5               	addwf	___fldiv@b+1,f
  5403  0C20  3000               	movlw	0
  5404  0C21  1803               	skipnc
  5405  0C22  3001               	movlw	1
  5406  0C23  07A6               	addwf	___fldiv@b+2,f
  5407  0C24  3000               	movlw	0
  5408  0C25  1803               	skipnc
  5409  0C26  3001               	movlw	1
  5410  0C27  07A7               	addwf	___fldiv@b+3,f
  5411  0C28                     l1786:	
  5412  0C28  1C27               	btfss	___fldiv@b+3,0
  5413  0C29  2C2B               	goto	u2601
  5414  0C2A  2C2C               	goto	u2600
  5415  0C2B                     u2601:	
  5416  0C2B  2C4B               	goto	l1792
  5417  0C2C                     u2600:	
  5418  0C2C                     l1788:	
  5419  0C2C  0824               	movf	___fldiv@b,w
  5420  0C2D  00A8               	movwf	??___fldiv
  5421  0C2E  0825               	movf	___fldiv@b+1,w
  5422  0C2F  00A9               	movwf	??___fldiv+1
  5423  0C30  0826               	movf	___fldiv@b+2,w
  5424  0C31  00AA               	movwf	??___fldiv+2
  5425  0C32  0827               	movf	___fldiv@b+3,w
  5426  0C33  00AB               	movwf	??___fldiv+3
  5427  0C34  3001               	movlw	1
  5428  0C35  00AC               	movwf	??___fldiv+4
  5429  0C36                     u2615:	
  5430  0C36  0D2B               	rlf	??___fldiv+3,w
  5431  0C37  0CAB               	rrf	??___fldiv+3,f
  5432  0C38  0CAA               	rrf	??___fldiv+2,f
  5433  0C39  0CA9               	rrf	??___fldiv+1,f
  5434  0C3A  0CA8               	rrf	??___fldiv,f
  5435  0C3B                     u2610:	
  5436  0C3B  0BAC               	decfsz	??___fldiv+4,f
  5437  0C3C  2C36               	goto	u2615
  5438  0C3D  082B               	movf	??___fldiv+3,w
  5439  0C3E  00A7               	movwf	___fldiv@b+3
  5440  0C3F  082A               	movf	??___fldiv+2,w
  5441  0C40  00A6               	movwf	___fldiv@b+2
  5442  0C41  0829               	movf	??___fldiv+1,w
  5443  0C42  00A5               	movwf	___fldiv@b+1
  5444  0C43  0828               	movf	??___fldiv,w
  5445  0C44  00A4               	movwf	___fldiv@b
  5446  0C45                     l1790:	
  5447  0C45  3001               	movlw	1
  5448  0C46  07B2               	addwf	___fldiv@new_exp,f
  5449  0C47  1803               	skipnc
  5450  0C48  0AB3               	incf	___fldiv@new_exp+1,f
  5451  0C49  3000               	movlw	0
  5452  0C4A  07B3               	addwf	___fldiv@new_exp+1,f
  5453  0C4B                     l1792:	
  5454  0C4B  0833               	movf	___fldiv@new_exp+1,w
  5455  0C4C  3A80               	xorlw	128
  5456  0C4D  00FF               	movwf	btemp+1
  5457  0C4E  3080               	movlw	128
  5458  0C4F  027F               	subwf	btemp+1,w
  5459  0C50  1D03               	skipz
  5460  0C51  2C54               	goto	u2625
  5461  0C52  30FF               	movlw	255
  5462  0C53  0232               	subwf	___fldiv@new_exp,w
  5463  0C54                     u2625:	
  5464  0C54  1C03               	skipc
  5465  0C55  2C57               	goto	u2621
  5466  0C56  2C58               	goto	u2620
  5467  0C57                     u2621:	
  5468  0C57  2C66               	goto	l1796
  5469  0C58                     u2620:	
  5470  0C58                     l1794:	
  5471  0C58  30FF               	movlw	255
  5472  0C59  1283               	bcf	3,5	;RP0=0, select bank0
  5473  0C5A  1303               	bcf	3,6	;RP1=0, select bank0
  5474  0C5B  00B2               	movwf	___fldiv@new_exp
  5475  0C5C  3000               	movlw	0
  5476  0C5D  00B3               	movwf	___fldiv@new_exp+1
  5477  0C5E  3000               	movlw	0
  5478  0C5F  00A7               	movwf	___fldiv@b+3
  5479  0C60  3000               	movlw	0
  5480  0C61  00A6               	movwf	___fldiv@b+2
  5481  0C62  3000               	movlw	0
  5482  0C63  00A5               	movwf	___fldiv@b+1
  5483  0C64  3000               	movlw	0
  5484  0C65  00A4               	movwf	___fldiv@b
  5485  0C66                     l1796:	
  5486  0C66  1283               	bcf	3,5	;RP0=0, select bank0
  5487  0C67  1303               	bcf	3,6	;RP1=0, select bank0
  5488  0C68  0833               	movf	___fldiv@new_exp+1,w
  5489  0C69  3A80               	xorlw	128
  5490  0C6A  00FF               	movwf	btemp+1
  5491  0C6B  3080               	movlw	128
  5492  0C6C  027F               	subwf	btemp+1,w
  5493  0C6D  1D03               	skipz
  5494  0C6E  2C71               	goto	u2635
  5495  0C6F  3001               	movlw	1
  5496  0C70  0232               	subwf	___fldiv@new_exp,w
  5497  0C71                     u2635:	
  5498  0C71  1803               	skipnc
  5499  0C72  2C74               	goto	u2631
  5500  0C73  2C75               	goto	u2630
  5501  0C74                     u2631:	
  5502  0C74  2C82               	goto	l553
  5503  0C75                     u2630:	
  5504  0C75                     l1798:	
  5505  0C75  1283               	bcf	3,5	;RP0=0, select bank0
  5506  0C76  1303               	bcf	3,6	;RP1=0, select bank0
  5507  0C77  01B2               	clrf	___fldiv@new_exp
  5508  0C78  01B3               	clrf	___fldiv@new_exp+1
  5509  0C79                     l1800:	
  5510  0C79  3000               	movlw	0
  5511  0C7A  00A7               	movwf	___fldiv@b+3
  5512  0C7B  3000               	movlw	0
  5513  0C7C  00A6               	movwf	___fldiv@b+2
  5514  0C7D  3000               	movlw	0
  5515  0C7E  00A5               	movwf	___fldiv@b+1
  5516  0C7F  3000               	movlw	0
  5517  0C80  00A4               	movwf	___fldiv@b
  5518  0C81                     l1802:	
  5519  0C81  01B1               	clrf	___fldiv@sign
  5520  0C82                     l553:	
  5521  0C82  1283               	bcf	3,5	;RP0=0, select bank0
  5522  0C83  1303               	bcf	3,6	;RP1=0, select bank0
  5523  0C84  0832               	movf	___fldiv@new_exp,w
  5524  0C85  00A8               	movwf	??___fldiv
  5525  0C86  0828               	movf	??___fldiv,w
  5526  0C87  00B8               	movwf	___fldiv@bexp
  5527  0C88                     l1804:	
  5528  0C88  1C38               	btfss	___fldiv@bexp,0
  5529  0C89  2C8B               	goto	u2641
  5530  0C8A  2C8C               	goto	u2640
  5531  0C8B                     u2641:	
  5532  0C8B  2C8E               	goto	l1808
  5533  0C8C                     u2640:	
  5534  0C8C                     l1806:	
  5535  0C8C  17A6               	bsf	___fldiv@b+2,7
  5536  0C8D  2C92               	goto	l555
  5537  0C8E                     l1808:	
  5538  0C8E  307F               	movlw	127
  5539  0C8F  00A8               	movwf	??___fldiv
  5540  0C90  0828               	movf	??___fldiv,w
  5541  0C91  05A6               	andwf	___fldiv@b+2,f
  5542  0C92                     l555:	
  5543  0C92  0838               	movf	___fldiv@bexp,w
  5544  0C93  00A8               	movwf	??___fldiv
  5545  0C94  1003               	clrc
  5546  0C95  0C28               	rrf	??___fldiv,w
  5547  0C96  00A9               	movwf	??___fldiv+1
  5548  0C97  0829               	movf	??___fldiv+1,w
  5549  0C98  00A7               	movwf	___fldiv@b+3
  5550  0C99  0831               	movf	___fldiv@sign,w
  5551  0C9A  00A8               	movwf	??___fldiv
  5552  0C9B  0828               	movf	??___fldiv,w
  5553  0C9C  04A7               	iorwf	___fldiv@b+3,f
  5554  0C9D  2B36               	goto	l1716
  5555  0C9E                     l533:	
  5556  0C9E  0008               	return
  5557  0C9F                     __end_of___fldiv:	
  5558  007E                     btemp	set	126	;btemp
  5559  007E                     wtemp0	set	126


Data Sizes:
    Strings     15
    Constant    0
    Data        112
    BSS         8
    Persistent  0
    Stack       0

Auto Spaces:
    Space          Size  Autos    Used
    COMMON           14     14      14
    BANK0            80     80      80
    BANK1            80     80      80
    BANK3            96     44      92
    BANK2            96      0      72

Pointer List with Targets:

    strlen@s	PTR const unsigned char  size(1) Largest target is 15
		 -> STR_1(CODE[15]), 

    strlen@cp	PTR const unsigned char  size(1) Largest target is 15
		 -> STR_1(CODE[15]), 

    write_led@wrds	PTR unsigned char  size(1) Largest target is 15
		 -> STR_1(CODE[15]), 

    write_led@FR	PTR unsigned char  size(2) Largest target is 8
		 -> write_led@spc(BANK3[8]), write_led@_SM(BANK3[8]), write_led@_H(BANK3[8]), write_led@SRr(BANK3[8]), 
		 -> write_led@RR(BANK1[8]), write_led@DR(BANK1[8]), write_led@ER(BANK1[8]), write_led@KR(BANK1[8]), 
		 -> write_led@HR(BANK1[8]), write_led@OR(BANK1[8]), write_led@MR(BANK1[8]), write_led@AR(BANK1[8]), 
		 -> write_led@IR(BANK1[8]), write_led@UR(BANK1[8]), 

    write_led@SR	PTR unsigned char  size(2) Largest target is 8
		 -> write_led@spc(BANK3[8]), write_led@_SM(BANK3[8]), write_led@_H(BANK3[8]), write_led@SRr(BANK3[8]), 
		 -> write_led@RR(BANK1[8]), write_led@DR(BANK1[8]), write_led@ER(BANK1[8]), write_led@KR(BANK1[8]), 
		 -> write_led@HR(BANK1[8]), write_led@OR(BANK1[8]), write_led@MR(BANK1[8]), write_led@AR(BANK1[8]), 
		 -> write_led@IR(BANK1[8]), write_led@UR(BANK1[8]), 


Critical Paths under _main in COMMON

    _write_led->___xxtofl
    ___flsub->___xxtofl
    ___flmul->___xxtofl
    ___flge->___xxtofl
    ___fldiv->___xxtofl

Critical Paths under _main in BANK0

    _main->_write_led
    _write_led->___flsub
    ___flsub->___flmul
    ___flmul->___fldiv

Critical Paths under _main in BANK1

    _main->_write_led

Critical Paths under _main in BANK3

    _main->_write_led

Critical Paths under _main in BANK2

    None.

Call Graph Tables:

 ---------------------------------------------------------------------------------
 (Depth) Function   	        Calls       Base Space   Used Autos Params    Refs
 ---------------------------------------------------------------------------------
 (0) _main                                                 1     1      0    8595
                                             43 BANK3      1     1      0
                          _write_led
 ---------------------------------------------------------------------------------
 (1) _write_led                                          143   142      1    8595
                                             60 BANK0     20    19      1
                                              0 BANK1     80    80      0
                                              0 BANK3     43    43      0
                            ___fldiv
                             ___flge
                            ___flmul
                            ___flsub
                           ___xxtofl
                             _strlen
 ---------------------------------------------------------------------------------
 (3) _strlen                                               5     3      2     123
                                              0 COMMON     5     3      2
 ---------------------------------------------------------------------------------
 (2) ___xxtofl                                            14    10      4     474
                                              0 COMMON    14    10      4
 ---------------------------------------------------------------------------------
 (2) ___flsub                                              8     0      8    2333
                                             52 BANK0      8     0      8
                            ___fladd
                            ___fldiv (ARG)
                            ___flmul (ARG)
                           ___xxtofl (ARG)
 ---------------------------------------------------------------------------------
 (3) ___fladd                                             20    12      8    2136
                                              0 COMMON    12     4      8
                                              0 BANK0      8     8      0
 ---------------------------------------------------------------------------------
 (2) ___flmul                                             26    18      8    2417
                                             26 BANK0     26    18      8
                          __Umul8_16
                            ___fldiv (ARG)
                           ___xxtofl (ARG)
 ---------------------------------------------------------------------------------
 (3) __Umul8_16                                            9     7      2     799
                                              0 COMMON     9     7      2
 ---------------------------------------------------------------------------------
 (2) ___flge                                              12     4      8     334
                                              0 BANK0     12     4      8
                           ___xxtofl (ARG)
 ---------------------------------------------------------------------------------
 (2) ___fldiv                                             26    18      8    1273
                                              0 BANK0     26    18      8
                           ___xxtofl (ARG)
 ---------------------------------------------------------------------------------
 Estimated maximum stack depth 3
 ---------------------------------------------------------------------------------

 Call Graph Graphs:

 _main (ROOT)
   _write_led
     ___fldiv
       ___xxtofl (ARG)
     ___flge
       ___xxtofl (ARG)
     ___flmul
       __Umul8_16
       ___fldiv (ARG)
         ___xxtofl (ARG)
       ___xxtofl (ARG)
     ___flsub
       ___fladd
       ___fldiv (ARG)
         ___xxtofl (ARG)
       ___flmul (ARG)
         __Umul8_16
         ___fldiv (ARG)
           ___xxtofl (ARG)
         ___xxtofl (ARG)
       ___xxtofl (ARG)
     ___xxtofl
     _strlen

 Address spaces:
Name               Size   Autos  Total    Cost      Usage
BANK3               60     2C      5C       9       95.8%
BITBANK3            60      0       0       8        0.0%
SFR3                 0      0       0       4        0.0%
BITSFR3              0      0       0       4        0.0%
BANK2               60      0      48      11       75.0%
BITBANK2            60      0       0      10        0.0%
SFR2                 0      0       0       5        0.0%
BITSFR2              0      0       0       5        0.0%
BANK1               50     50      50       7      100.0%
BITBANK1            50      0       0       6        0.0%
SFR1                 0      0       0       2        0.0%
BITSFR1              0      0       0       2        0.0%
BANK0               50     50      50       5      100.0%
BITBANK0            50      0       0       4        0.0%
SFR0                 0      0       0       1        0.0%
BITSFR0              0      0       0       1        0.0%
COMMON               E      E       E       1      100.0%
BITCOMMON            E      0       0       0        0.0%
CODE                 0      0       0       0        0.0%
DATA                 0      0     152      12        0.0%
ABS                  0      0     152       3        0.0%
NULL                 0      0       0       0        0.0%
STACK                0      0       0       2        0.0%
EEDATA             100      0       0       0        0.0%


Microchip Technology PIC Macro Assembler V2.10 build 88905656 
Symbol Table                                                                                   Mon Mar 30 16:03:18 2020

           ___fldiv@aexp 0039             ___fldiv@bexp 0038                        pc 0002  
           ___fldiv@sign 0031              __CFG_CP$OFF 0000                       l19 091E  
                     l78 066E                       l96 07D6                       fsr 0004  
    __Umul8_16@word_mpld 0076                      l500 02BD                      l360 00B9  
                    l521 0970                      l506 02DF                      l531 0B1E  
                    l611 0AC1                      l356 0034                      l533 0C9E  
                    l517 0343                      l509 031F                      l518 0351  
                    l622 0A8B                      l630 094C                      l359 00A0  
                    l623 0A97                      l615 0A6F                      l553 0C82  
                    l481 019B                      l609 0A2A                      l634 0985  
                    l555 0C92                      l547 0C10                      l571 0FFF  
                    l475 011D                      l636 0997                      l583 0FF3  
                    l479 01C6                      l496 0297                      l488 0351  
                    l577 0F6B             __CFG_CPD$OFF 0000                      fsr0 0004  
                    indf 0000            write_led@F970 01B8             __CFG_FOSC$XT 0000  
          write_led@F972 01B0            write_led@F980 0190            write_led@F974 01A8  
          write_led@F982 0148            write_led@F990 0128            write_led@F976 01A0  
          write_led@F984 0140            write_led@F992 0120            write_led@F978 0198  
          write_led@F986 0138            write_led@F994 0118            write_led@F988 0130  
          write_led@F996 0110            write_led@F998 0150             ___flmul@aexp 004C  
           ___flmul@bexp 004D             ___flmul@sign 0047             ___flmul@temp 0052  
           ___flmul@prod 004E             __CFG_LVP$OFF 0000                     l2000 0359  
                   l2010 03C9                     l2002 0371                     l2020 0437  
                   l2012 03DF                     l2004 0387                     l2110 067D  
                   l2102 0671                     l2030 0494                     l2022 044C  
                   l2014 03F5                     l2006 039D                     l2120 06EB  
                   l2112 068F                     l2104 067C                     l2040 051E  
                   l2032 049A                     l2024 0461                     l2016 040B  
                   l2008 03B3                     l2130 0759                     l2122 0701  
                   l2114 06A5                     l2050 055F                     l2042 052F  
                   l2034 050C                     l2026 0477                     l2018 0421  
                   l1500 015B                     l2140 07B5                     l2132 0799  
                   l2124 0740                     l2116 06D9                     l2060 0596  
                   l2052 0566                     l2044 0536                     l2036 0510  
                   l2028 048C                     l1510 017F                     l1502 015F  
                   l1430 00C1                     l2134 079C                     l2126 074B  
                   l2118 06E9                     l2070 05D7                     l2062 05A7  
                   l2054 0577                     l2046 0547                     l2038 0512  
                   l2142 07BD                     l1600 02FB                     l1520 01B1  
                   l1512 019F                     l1504 0163                     l1440 00D6  
                   l1432 00C7                     l2136 07A7                     l2128 0753  
                   l2080 060E                     l2072 05DE                     l2064 05AE  
                   l2056 057E                     l2048 054E                     l2144 091E  
                   l1610 0336                     l1602 031B                     l1522 01BC  
                   l1514 01AA                     l1506 0167                     l1450 00EE  
                   l1442 00DE                     l1434 00CB                     l2138 07AF  
                   l2090 064F                     l2082 061F                     l2074 05EF  
                   l2066 05BF                     l2058 058F                     l1700 0B01  
                   l1620 0350                     l1612 0337                     l1604 0324  
                   l1540 0202                     l1532 01D8                     l1516 01AC  
                   l1524 01C0                     l1508 0168                     l1460 0100  
                   l1452 00F4                     l1444 00DF                     l1436 00CC  
                   l1428 00BA                     l2092 0656                     l2084 0626  
                   l2076 05F6                     l2068 05C6                     l1702 0B06  
                   l1710 0B16                     l1630 098E                     l1622 0972  
                   l1614 033B                     l1606 0329                     l1542 0204  
                   l1534 01EF                     l1526 01CA                     l1550 0219  
                   l1518 01B0                     l1462 0105                     l1470 0115  
                   l1454 00F5                     l1438 00D1                     l1446 00E1  
                   l2094 0667                     l2086 0637                     l2078 0607  
                   l1800 0C79                     l1712 0B26                     l1720 0B3F  
                   l1704 0B0B                     l1632 0993                     l1624 0974  
                   l1616 033D                     l1608 0331                     l1552 022F  
                   l1560 0289                     l1544 0208                     l1536 01F3  
                   l1528 01CF                     l1480 0133                     l1472 0123  
                   l1464 010A                     l1456 00FB                     l1448 00E9  
                   l1640 093A                     l2088 063E                     l2096 066E  
                   l1802 0C81                     l1730 0B67                     l1722 0B44  
                   l1714 0B32                     l1706 0B13                     l1650 0048  
                   l1626 097B                     l1618 034C                     l1570 02B8  
                   l1562 029F                     l1554 026F                     l1546 0209  
                   l1538 01F7                     l1490 0147                     l1482 0137  
                   l1474 0127                     l1466 0112                     l1458 00FF  
                   l1642 0946                     l1804 0C88                     l1740 0B90  
                   l1732 0B6F                     l1716 0B36                     l1708 0B14  
                   l1660 00B6                     l1652 0050                     l1628 097F  
                   l1900 0F2E                     l1820 0CB0                     l1580 02CB  
                   l1572 02BC                     l1564 02A4                     l1556 0275  
                   l1548 0214                     l1492 014B                     l1484 013B  
                   l1476 012B                     l1468 0113                     l1636 0931  
                   l1806 0C8C                     l1750 0BB1                     l1742 0B94  
                   l1734 0B77                     l1726 0B4D                     l1662 00B8  
                   l1654 0054                     l1646 0016                     l1902 0F37  
                   l1910 0F4B                     l1830 0CC5                     l1822 0CB1  
                   l1814 0C9F                     l1590 02DC                     l1574 02C1  
                   l1582 02CD                     l1558 027A                     l1494 014F  
                   l1486 013F                     l1478 012F                     l1638 0936  
                   l1808 0C8E                     l1760 0BD3                     l1752 0BBF  
                   l1744 0B95                     l1736 0B79                     l1728 0B5F  
                   l1680 0AD4                     l1672 0AC2                     l1656 0078  
                   l1648 002C                     l1912 0F4F                     l1904 0F3B  
                   l1840 0CDD                     l1832 0CCD                     l1824 0CB6  
                   l1816 0CA6                     l1576 02C4                     l1568 02AD  
                   l1584 02D1                     l1496 0153                     l1488 0143  
                   l1762 0BDC                     l1770 0BF0                     l1738 0B7E  
                   l1746 0B9E                     l1754 0BC3                     l1682 0AD9  
                   l1690 0AE9                     l1674 0AC9                     l1658 007C  
                   l1930 0FA0                     l1922 0F70                     l1914 0F50  
                   l1906 0F3C                     l1850 0CF9                     l1842 0CE2  
                   l1834 0CD2                     l1826 0CBB                     l1818 0CAC  
                   l1594 02E4                     l1586 02D2                     l1578 02C6  
                   l1498 0157                     l1666 094D                     l1772 0BF4  
                   l1764 0BE0                     l1756 0BC9                     l1748 0BB0  
                   l1692 0AF1                     l1684 0ADE                     l1676 0ACF  
                   l1940 0FD7                     l1924 0F75                     l1932 0FA6  
                   l1916 0F54                     l1908 0F45                     l1860 0D1C  
                   l1852 0CFE                     l1844 0CE7                     l1836 0CD8  
                   l1828 0CC3                     l1596 02E9                     l1588 02D6  
                   l1668 0951                     l1790 0C45                     l1782 0C15  
                   l1774 0BF5                     l1766 0BE1                     l1758 0BD1  
                   l1694 0AF6                     l1686 0AE6                     l1678 0AD3  
                   l1950 0FF7                     l1942 0FD9                     l1934 0FB3  
                   l1926 0F83                     l1918 0F68                     l1870 0DAA  
                   l1862 0D29                     l1854 0D03                     l1846 0CEF  
                   l1838 0CDC                     l1598 02F7                     l1784 0C1A  
                   l1792 0C4B                     l1776 0BF9                     l1768 0BEA  
                   l1696 0AFC                     l1688 0AE7                     l1944 0FE7  
                   l1936 0FBE                     l1928 0F87                     l1880 0E0C  
                   l1872 0DC6                     l1864 0D46                     l1848 0CF1  
                   l1960 0A22                     l1794 0C58                     l1786 0C28  
                   l1778 0C0D                     l1698 0B00                     l1946 0FEB  
                   l1938 0FCD                     l1890 0E9C                     l1882 0E29  
                   l1874 0DCF                     l1866 0D62                     l1858 0D0C  
                   l1970 0A4D                     l1962 0A32                     l1954 0A09  
                   l1796 0C66                     l1788 0C2C                     l1948 0FEC  
                   l1892 0EC9                     l1884 0E42                     l1876 0DDF  
                   l1868 0D8E                     l1980 0A81                     l1972 0A54  
                   l1956 0A0E                     l1798 0C75                     l1894 0EEF  
                   l1886 0E5F                     l1878 0DFC                     l1990 0AB4  
                   l1982 0A85                     l1974 0A58                     l1966 0A3B  
                   l1958 0A12                     l1896 0F17                     l1888 0E8C  
                   l1992 0AB8                     l1984 0A8F                     l1976 0A66  
                   l1968 0A40                     l1898 0F20                     l1994 0AB9  
                   l1986 0A99                     l1978 0A76                     l1988 0AAF  
                   l1998 0355                     STR_1 0806            write_led@wrds 005C  
                   u2000 0208                     u2001 0207                     u2100 02C1  
                   u2020 022F                     u2101 02C0                     u2021 022E  
                   u2110 02CB                     u2111 02CA                     u2031 0248  
                   u2023 022B                     u2015 020D                     u3000 0FCD  
                   u2200 0324                     u2120 02D1                     u2040 025C  
                   u2032 0249                     u3001 0FCC                     u2201 0323  
                   u2121 02D0                     u2041 025D                     u2033 024E  
                   u3010 0FEB                     u2210 0329                     u2130 02D6  
                   u2050 027A                     u2042 0262                     u2034 024F  
                   u3011 0FEA                     u2211 0328                     u2131 02D5  
                   u2051 0279                     u2043 0263                     u2035 0254  
                   u2300 0048                     u2220 0336                     u2140 02DC  
                   u2060 029F                     u2036 0255                     u3100 0A85  
                   u3020 0A0E                     u2301 0047                     u3005 0FC9  
                   u2221 0335                     u2141 02DB                     u2061 029E  
                   u3101 0A84                     u3021 0A0D                     u2310 0054  
                   u2230 033B                     u2150 02E3                     u2070 02A4  
                   u3110 0A8B                     u3030 0A12                     u2311 0053  
                   u2231 033A                     u2151 02E2                     u2071 02A3  
                   u3111 0A8A                     u3031 0A11                     u2400 0B06  
                   u2240 0350                     u2160 02E9                     u3120 0A8F  
                   u3040 0A32                     u3200 03BB                     u2401 0B05  
                   u2321 0063                     u2241 034F                     u2161 02E8  
                   u3121 0A8E                     u3041 0A31                     u2410 0B0B  
                   u2330 007C                     u2322 0064                     u2250 097F  
                   u2170 02FB                     u2090 02BC                     u3130 0AA4  
                   u3210 03D1                     u2411 0B0A                     u2331 007B  
                   u2323 0069                     u2251 097E                     u2171 02FA  
                   u2091 02BB                     u2500 0BC9                     u2420 0B26  
                   u2324 006A                     u2180 030C                     u3140 0AB4  
                   u3060 0A53                     u3300 0490                     u3220 03E7  
                   u2501 0BC8                     u2421 0B25                     u2341 008B  
                   u2325 006F                     u2085 02B1                     u3141 0AB3  
                   u3061 0A52                     u2510 0BD1                     u2430 0B44  
                   u2350 00B6                     u2342 008C                     u2326 0070  
                   u2270 0993                     u2190 031B                     u3150 0AB8  
                   u3310 052F                     u3230 03FD                     u2511 0BD0  
                   u2431 0B43                     u2351 00B5                     u2343 0091  
                   u2271 0992                     u2191 031A                     u3151 0AB7  
                   u3135 0A9F                     u3055 0A45                     u3311 052E  
                   u2600 0C2C                     u2440 0B7E                     u2360 0AD3  
                   u2344 0092                     u1800 00D1                     u3080 0A75  
                   u2280 0946                     u3400 0607                     u3320 0547  
                   u3240 0413                     u3160 0363                     u2601 0C2B  
                   u2441 0B7D                     u2361 0AD2                     u2345 0097  
                   u2265 0986                     u2185 0307                     u1801 00D0  
                   u3081 0A74                     u2281 0945                     u3401 0606  
                   u3321 0546                     u2610 0C3B                     u2530 0BE0  
                   u2370 0AD9                     u2346 0098                     u2290 002C  
                   u1810 00D6                     u3410 061F                     u3330 055F  
                   u3250 0429                     u3170 0379                     u2531 0BDF  
                   u2371 0AD8                     u2355 00B2                     u2291 002B  
                   u1811 00D5                     u3075 0A67                     u3411 061E  
                   u3331 055E                     u2620 0C58                     u2380 0ADE  
                   u2700 0CE7                     u1900 0189                     u1820 00F4  
                   u3500 0701                     u3420 0637                     u3340 0577  
                   u3260 043F                     u3180 038F                     u2621 0C57  
                   u2525 0BD5                     u2381 0ADD                     u2701 0CE6  
                   u1821 00F3                     u3501 0700                     u3421 0636  
                   u3341 0576                     u2630 0C75                     u2550 0BF4  
                   u2470 0B94                     u2390 0B00                     u2710 0CFE  
                   u1910 019F                     u1830 00FF                     u3510 0717  
                   u3430 064F                     u3350 058F                     u3270 0454  
                   u3190 03A5                     u2631 0C74                     u2615 0C36  
                   u2551 0BF3                     u2471 0B93                     u2455 0B80  
                   u2391 0AFF                     u2711 0CFD                     u1911 019E  
                   u1831 00FE                     u3095 0A7A                     u3431 064E  
                   u3351 058E                     u2640 0C8C                     u2560 0BF9  
                   u2720 0D03                     u1920 01B0                     u1840 0105  
                   u3520 072D                     u3440 0667                     u3360 05A7  
                   u3280 0469                     u2641 0C8B                     u2625 0C54  
                   u2561 0BF8                     u2545 0BE3                     u2465 0B89  
                   u2721 0D02                     u1921 01AF                     u1841 0104  
                   u3505 06FD                     u3441 0666                     u3361 05A6  
                   u2570 0C0D                     u2490 0BB0                     u2650 0CB0  
                   u1850 010A                     u3530 0759                     u3370 05BF  
                   u3290 047F                     u2635 0C71                     u2571 0C0C  
                   u2491 0BAF                     u2811 0E51                     u2731 0D54  
                   u2651 0CAF                     u1851 0109                     u3531 0758  
                   u3371 05BE                     u2580 0C14                     u2900 0F3B  
                   u2812 0E58                     u2732 0D5B                     u2660 0CB6  
                   u1940 01C6                     u1860 0123                     u3540 0799  
                   u3460 06A5                     u3380 05D7                     u2581 0C13  
                   u2485 0B97                     u2901 0F3A                     u2821 0E7E  
                   u2813 0E5F                     u2805 0E2B                     u2741 0D70  
                   u2733 0D62                     u2661 0CB5                     u1941 01C5  
                   u1861 0122                     u3541 0798                     u3461 06A4  
                   u3381 05D6                     u2590 0C1A                     u2822 0E85  
                   u2742 0D77                     u2670 0CBB                     u1950 01CA  
                   u1870 0127                     u1790 00CB                     u3550 07B5  
                   u3470 06B7                     u3454 0689                     u3390 05EF  
                   u2591 0C19                     u2495 0BAC                     u2831 0EAB  
                   u2823 0E8C                     u2751 0D9C                     u2743 0D7E  
                   u2671 0CBA                     u1951 01C9                     u1935 01B5  
                   u1871 0126                     u1791 00CA                     u3551 07B4  
                   u3455 0687                     u3391 05EE                     u2920 0F4F  
                   u2840 0ED5                     u2832 0EB2                     u2752 0DA3  
                   u2680 0CDC                     u1960 01CF                     u1880 017F  
                   u3560 07D6                     u3480 06CD                     u2921 0F4E  
                   u2833 0EB9                     u2761 0DB8                     u2753 0DAA  
                   u2681 0CDB                     u1961 01CE                     u1881 017E  
                   u3561 07D5                     u3465 06A1                     u2930 0F54  
                   u2762 0DBF                     u2690 0CE2                     u1890 0188  
                   u3490 06E9                     u2931 0F53                     u2915 0F3E  
                   u2851 0EE1                     u2763 0DC6                     u2691 0CE1  
                   u1971 01E1                     u1891 0186                     u3491 06E8  
                   u2940 0F68                     u2860 0EFD                     u2852 0EE8  
                   u1980 01F3                     u1972 01E8                     u2941 0F67  
                   u2853 0EEF                     u2845 0ED0                     u2781 0DEE  
                   u1981 01F2                     u1973 01EF                     u1885 017B  
                   u3565 07D2                     u2950 0F6F                     u2782 0DF5  
                   u1990 01F7                     u2951 0F6E                     u2871 0F09  
                   u2791 0E1B                     u2783 0DFC                     u2775 0DC8  
                   u1991 01F6                     u2960 0F75                     u2872 0F10  
                   u2792 0E22                     u2961 0F74                     u2873 0F17  
                   u2865 0EF8                     u2793 0E29                     u3577 0746  
                   u2970 0F87                     u2971 0F86                     u3587 07A2  
                   u2980 0F96                     u2885 0F19                     u2990 0FB3  
                   u2991 0FB2                     u2895 0F30                     u2985 0F91  
                   u2995 0FAF             __CFG_WRT$OFF 0000                     _main 091E  
                   btemp 007E                     start 0000          ___fldiv@new_exp 0032  
        __end_of___fladd 0352                    ?_main 0070          __end_of___fldiv 0C9F  
          __CFG_WDTE$OFF 0000          __end_of___flmul 1000          __end_of___flsub 0971  
                  _PORTB 0006                    _PORTD 0008                    _TRISB 0086  
                  _TRISD 0088            __CFG_PWRTE$ON 0000           __CFG_BOREN$OFF 0000  
                  pclath 000A                    status 0003                    wtemp0 007E  
        __initialization 07D7             __end_of_main 0930                   ??_main 01EB  
       __end_of___xxtofl 0AC2                   ___flge 0016                ??___fladd 0020  
              ??___fldiv 0028                ??___flmul 0042                ??___flsub 007E  
                 _strlen 0930       __size_of__Umul8_16 0027               ___flge@ff1 0020  
             ___flge@ff2 0024             ___xxtofl@arg 007A             ___xxtofl@exp 0079  
           ___xxtofl@val 0070  __end_of__initialization 07FC           __pcstackCOMMON 0070  
           __pidataBANK2 09C8             __pidataBANK3 0998               __pbssBANK2 0150  
      __end_of__Umul8_16 0998               __pmaintext 091E                  ?___flge 0020  
                ?_strlen 0070                ?___xxtofl 0070               __stringtab 0800  
     __size_of_write_led 0485          __size_of___flge 00A4                  ___fladd 00BA  
                ___fldiv 0AC2                  ___flmul 0C9F                  ___flsub 094D  
                __ptext1 0352                  __ptext2 0930                  __ptext3 0A08  
                __ptext4 094D                  __ptext5 00BA                  __ptext6 0C9F  
                __ptext7 0971                  __ptext8 0016                  __ptext9 0AC2  
        __size_of_strlen 001D               ??___xxtofl 0074     end_of_initialization 07FC  
                strlen@s 0073              ___fladd@grs 007B        __end_of_write_led 07D7  
          ___xxtofl@sign 0078              ___fldiv@grs 0034              ___fldiv@rem 002D  
            ___flmul@grs 0048             write_led@_H2 0065             write_led@SRr 01C0  
           write_led@_SM 01D0             write_led@spc 01D8           __end_of___flge 00BA  
         __end_of_strlen 094D      start_initialization 07D7                 ??___flge 0028  
             init_fetch0 0003                __Umul8_16 0971              __pdataBANK2 0110  
            __pdataBANK3 0190                 ??_strlen 0072                ___fladd@a 0074  
              ___fladd@b 0070                ___fldiv@a 0020                ___fldiv@b 0024  
              ___flmul@a 003E                ___flmul@b 003A                ___flsub@a 0054  
              ___flsub@b 0058                ___latbits 0002            __pcstackBANK0 0020  
          __pcstackBANK1 00A0            __pcstackBANK3 01C0        __size_of___xxtofl 00BA  
               ?___fladd 0070                 ?___fldiv 0020                 ?___flmul 003A  
               ?___flsub 0054               ?__Umul8_16 0070                __pstrings 0800  
            __stringbase 0805              write_led@AR 00B0              write_led@DR 00E0  
            write_led@ER 00D8              write_led@FR 006D              write_led@HR 00C8  
            write_led@IR 00A8              write_led@KR 00D0              write_led@MR 00B8  
            write_led@OR 00C0              write_led@RR 00E8              write_led@SR 01E6  
            write_led@UR 00A0              write_led@_H 01C8              write_led@cc 01E4  
            write_led@ti 006F              write_led@sp 01E0                _write_led 0352  
            ??__Umul8_16 0072         __size_of___fladd 0298         __size_of___fldiv 01DD  
       __size_of___flmul 0361         __size_of___flsub 0024       __end_of__stringtab 0806  
               ___xxtofl 0A08               ?_write_led 005C            __size_of_main 0012  
             write_led@i 01E9               write_led@j 01E8               write_led@t 01E5  
             write_led@w 01EA                 init_ram0 0007                stringcode 0800  
 __Umul8_16@multiplicand 0070                 strlen@cp 0074                 stringdir 0800  
               stringtab 0800              ??_write_led 005D            ___fladd@signs 0078  
           ___fladd@aexp 0079             ___fladd@bexp 007A     __Umul8_16@multiplier 0078  
      __Umul8_16@product 0074  
